# SymbolsHelper-Confirmed: 1.1.3 amd64
libktorrent.so.4 libktorrent4 #MINVER#
* Build-Depends-Package: libktorrent-dev
 _ZN2bt10BValueNode14printDebugInfoEv@Base 1.1~rc1
 _ZN2bt10BValueNodeC1ERKNS_5ValueEj@Base 1.1~rc1
 _ZN2bt10BValueNodeC2ERKNS_5ValueEj@Base 1.1~rc1
 _ZN2bt10BValueNodeD0Ev@Base 1.1~rc1
 _ZN2bt10BValueNodeD1Ev@Base 1.1~rc1
 _ZN2bt10BValueNodeD2Ev@Base 1.1~rc1
 _ZN2bt10Downloader10addWebSeedERK4KUrl@Base 1.1~rc1
 _ZN2bt10Downloader10onExcludedEjj@Base 1.1~rc1
 _ZN2bt10Downloader10onIncludedEjj@Base 1.1~rc1
 _ZN2bt10Downloader10setMonitorEPNS_16MonitorInterfaceE@Base 1.1~rc1
 _ZN2bt10Downloader11dataCheckedERKNS_6BitSetE@Base 1.1~rc1
 _ZN2bt10Downloader11qt_metacallEN11QMetaObject4CallEiPPv@Base 1.1~rc1
 _ZN2bt10Downloader11qt_metacastEPKc@Base 1.1~rc1
 _ZN2bt10Downloader11selectWorstEPNS_15PieceDownloaderE@Base 1.1~rc1
 _ZN2bt10Downloader11setGroupIDsEjj@Base 1.1~rc1
 _ZN2bt10Downloader12downloadFromEPNS_15PieceDownloaderE@Base 1.1~rc1
 _ZN2bt10Downloader12downloadFromEPNS_7WebSeedE@Base 1.1~rc1
 _ZN2bt10Downloader12loadWebSeedsERK7QString@Base 1.1~rc1
 _ZN2bt10Downloader12normalUpdateEv@Base 1.1~rc1
 _ZN2bt10Downloader12onChunkReadyEPNS_5ChunkE@Base 1.1~rc1
 _ZN2bt10Downloader12saveWebSeedsERK7QString@Base 1.1~rc1
 _ZN2bt10Downloader12use_webseedsE@Base 1.1~rc1
 _ZN2bt10Downloader13loadDownloadsERK7QString@Base 1.1~rc1
 _ZN2bt10Downloader13pieceReceivedERKNS_5PieceE@Base 1.1~rc1
 _ZN2bt10Downloader13removeWebSeedERK4KUrl@Base 1.1~rc1
 _ZN2bt10Downloader13saveDownloadsERK7QString@Base 1.1~rc1
 _ZN2bt10Downloader14clearDownloadsEv@Base 1.1~rc1
 _ZN2bt10Downloader14setUseWebSeedsEb@Base 1.1~rc1
 _ZN2bt10Downloader15chunkDownloadedEj@Base 1.1~rc1
 _ZN2bt10Downloader16recalcDownloadedEv@Base 1.1~rc1
 _ZN2bt10Downloader16setChunkSelectorEPNS_22ChunkSelectorInterfaceE@Base 1.1~rc1
 _ZN2bt10Downloader16staticMetaObjectE@Base 1.1~rc1
 _ZN2bt10Downloader17findDownloadForPDEPNS_15PieceDownloaderE@Base 1.1~rc1
 _ZN2bt10Downloader17removeAllWebSeedsEv@Base 1.1~rc1
 _ZN2bt10Downloader18addPieceDownloaderEPNS_15PieceDownloaderE@Base 1.1~rc1
 _ZN2bt10Downloader20chunkDownloadStartedEPNS_20WebSeedChunkDownloadEj@Base 1.1~rc1
 _ZN2bt10Downloader21chunkDownloadFinishedEPNS_20WebSeedChunkDownloadEj@Base 1.1~rc1
 _ZN2bt10Downloader21removePieceDownloaderEPNS_15PieceDownloaderE@Base 1.1~rc1
 _ZN2bt10Downloader37getDownloadedBytesOfCurrentChunksFileERK7QString@Base 1.1~rc1
 _ZN2bt10Downloader5pauseEv@Base 1.1~rc1
 _ZN2bt10Downloader6updateEv@Base 1.1~rc1
 _ZN2bt10Downloader7ioErrorERK7QString@Base 1.1~rc1
 _ZN2bt10Downloader8downloadEj@Base 1.1~rc1
 _ZN2bt10Downloader8finishedEPNS_13ChunkDownloadE@Base 1.1~rc1
 _ZN2bt10Downloader8selectCDEPNS_15PieceDownloaderEj@Base 1.1~rc1
 _ZN2bt10Downloader9corruptedEj@Base 1.1~rc1
 _ZN2bt10DownloaderC1ERNS_7TorrentERNS_11PeerManagerERNS_12ChunkManagerE@Base 1.1~rc1
 _ZN2bt10DownloaderC2ERNS_7TorrentERNS_11PeerManagerERNS_12ChunkManagerE@Base 1.1~rc1
 _ZN2bt10DownloaderD0Ev@Base 1.1~rc1
 _ZN2bt10DownloaderD1Ev@Base 1.1~rc1
 _ZN2bt10DownloaderD2Ev@Base 1.1~rc1
 _ZN2bt10MagnetLink17base32ToHexStringERK7QString@Base 1.1~rc1
 _ZN2bt10MagnetLink5parseERK7QString@Base 1.1~rc1
 _ZN2bt10MagnetLink9charToHexERK5QChar@Base 1.1~rc1
 _ZN2bt10MagnetLinkC1ERK7QString@Base 1.1~rc1
 _ZN2bt10MagnetLinkC1ERKS0_@Base 1.1~rc1
 _ZN2bt10MagnetLinkC1Ev@Base 1.1~rc1
 _ZN2bt10MagnetLinkC2ERK7QString@Base 1.1~rc1
 _ZN2bt10MagnetLinkC2ERKS0_@Base 1.1~rc1
 _ZN2bt10MagnetLinkC2Ev@Base 1.1~rc1
 _ZN2bt10MagnetLinkD0Ev@Base 1.1~rc1
 _ZN2bt10MagnetLinkD1Ev@Base 1.1~rc1
 _ZN2bt10MagnetLinkD2Ev@Base 1.1~rc1
 _ZN2bt10MagnetLinkaSERKS0_@Base 1.1~rc1
 _ZN2bt10MagnetLinkeqERKS0_@Base 1.1~rc1
 _ZN2bt10MountPointERK7QString@Base 1.1~rc1
 _ZN2bt10PeerSource10peersReadyEPS0_@Base 1.1~rc1
 _ZN2bt10PeerSource11qt_metacallEN11QMetaObject4CallEiPPv@Base 1.1~rc1
 _ZN2bt10PeerSource11qt_metacastEPKc@Base 1.1~rc1
 _ZN2bt10PeerSource12manualUpdateEv@Base 1.1~rc1
 _ZN2bt10PeerSource16staticMetaObjectE@Base 1.1~rc1
 _ZN2bt10PeerSource17takePotentialPeerERNS_13PotentialPeerE@Base 1.1~rc1
 _ZN2bt10PeerSource18aboutToBeDestroyedEv@Base 1.1~rc1
 _ZN2bt10PeerSource7addPeerERK7QStringtb@Base 1.1~rc1
 _ZN2bt10PeerSource9completedEv@Base 1.1~rc1
 _ZN2bt10PeerSourceC1Ev@Base 1.1~rc1
 _ZN2bt10PeerSourceC2Ev@Base 1.1~rc1
 _ZN2bt10PeerSourceD0Ev@Base 1.1~rc1
 _ZN2bt10PeerSourceD1Ev@Base 1.1~rc1
 _ZN2bt10PeerSourceD2Ev@Base 1.1~rc1
 _ZN2bt10PercentageERKNS_12TorrentStatsE@Base 1.1~rc1
 _ZN2bt10ReadUint16EPKhj@Base 1.1~rc1
 _ZN2bt10ReadUint32EPKhj@Base 1.1~rc1
 _ZN2bt10ReadUint64EPKhy@Base 1.1~rc1
 _ZN2bt10UPnPRouter10addServiceERKNS_11UPnPServiceE@Base 1.1~rc1
 _ZN2bt10UPnPRouter10setVerboseEb@Base 1.1~rc1
 _ZN2bt10UPnPRouter11qt_metacallEN11QMetaObject4CallEiPPv@Base 1.1~rc1
 _ZN2bt10UPnPRouter11qt_metacastEPKc@Base 1.1~rc1
 _ZN2bt10UPnPRouter11undoForwardERKN3net4PortEPNS_7WaitJobE@Base 1.1~rc1
 _ZN2bt10UPnPRouter12stateChangedEv@Base 1.1~rc1
 _ZN2bt10UPnPRouter13forwardResultEPNS_11HTTPRequestE@Base 1.1~rc1
 _ZN2bt10UPnPRouter14getDescriptionEv@Base 1.1~rc1
 _ZN2bt10UPnPRouter15downloadXMLFileEv@Base 1.1~rc1
 _ZN2bt10UPnPRouter16downloadFinishedEP4KJob@Base 1.1~rc1
 _ZN2bt10UPnPRouter16staticMetaObjectE@Base 1.1~rc1
 _ZN2bt10UPnPRouter17UPnPRouterPrivate11undoForwardEPKNS_11UPnPServiceERKN3net4PortEPNS_7WaitJobE@Base 1.1~rc1
 _ZN2bt10UPnPRouter17UPnPRouterPrivate13getExternalIPEv@Base 1.1~rc1
 _ZN2bt10UPnPRouter17UPnPRouterPrivate13sendSoapQueryERK7QStringS4_S4_b@Base 1.1.3
 _ZN2bt10UPnPRouter17UPnPRouterPrivate15httpRequestDoneEPNS_11HTTPRequestEb@Base 1.1~rc1
 _ZN2bt10UPnPRouter17UPnPRouterPrivate7forwardEPKNS_11UPnPServiceERKN3net4PortE@Base 1.1~rc1
 _ZN2bt10UPnPRouter17UPnPRouterPrivateC1ERK7QStringRK4KUrlbPS0_@Base 1.1~rc1
 _ZN2bt10UPnPRouter17UPnPRouterPrivateC2ERK7QStringRK4KUrlbPS0_@Base 1.1~rc1
 _ZN2bt10UPnPRouter17UPnPRouterPrivateD1Ev@Base 1.1~rc1
 _ZN2bt10UPnPRouter17UPnPRouterPrivateD2Ev@Base 1.1~rc1
 _ZN2bt10UPnPRouter17undoForwardResultEPNS_11HTTPRequestE@Base 1.1~rc1
 _ZN2bt10UPnPRouter17xmlFileDownloadedEPS0_b@Base 1.1~rc1
 _ZN2bt10UPnPRouter19getExternalIPResultEPNS_11HTTPRequestE@Base 1.1~rc1
 _ZN2bt10UPnPRouter7forwardERKN3net4PortE@Base 1.1~rc1
 _ZN2bt10UPnPRouterC1ERK7QStringRK4KUrlb@Base 1.1~rc1
 _ZN2bt10UPnPRouterC2ERK7QStringRK4KUrlb@Base 1.1~rc1
 _ZN2bt10UPnPRouterD0Ev@Base 1.1~rc1
 _ZN2bt10UPnPRouterD1Ev@Base 1.1~rc1
 _ZN2bt10UPnPRouterD2Ev@Base 1.1~rc1
 _ZN2bt10UTMetaData10sendRejectEi@Base 1.1~rc1
 _ZN2bt10UTMetaData12handlePacketEPKhj@Base 1.1~rc1
 _ZN2bt10UTMetaData23setReportedMetadataSizeEj@Base 1.1~rc1
 _ZN2bt10UTMetaData4dataEPNS_9BDictNodeERK10QByteArray@Base 1.1~rc1
 _ZN2bt10UTMetaData6rejectEPNS_9BDictNodeE@Base 1.1~rc1
 _ZN2bt10UTMetaData7requestEPNS_9BDictNodeE@Base 1.1~rc1
 _ZN2bt10UTMetaData8sendDataEiiRK10QByteArray@Base 1.1~rc1
 _ZN2bt10UTMetaDataC1ERKNS_7TorrentEjPNS_4PeerE@Base 1.1~rc1
 _ZN2bt10UTMetaDataC2ERKNS_7TorrentEjPNS_4PeerE@Base 1.1~rc1
 _ZN2bt10UTMetaDataD0Ev@Base 1.1~rc1
 _ZN2bt10UTMetaDataD1Ev@Base 1.1~rc1
 _ZN2bt10UTMetaDataD2Ev@Base 1.1~rc1
 _ZN2bt10WriteInt16EPhjs@Base 1.1~rc1
 _ZN2bt10WriteInt32EPhji@Base 1.1~rc1
 _ZN2bt10WriteInt64EPhjx@Base 1.1~rc1
 _ZN2bt10sigbus_envE@Base 1.1~rc1
 _ZN2bt11DataChecker11qt_metacallEN11QMetaObject4CallEiPPv@Base 1.1~rc1
 _ZN2bt11DataChecker11qt_metacastEPKc@Base 1.1~rc1
 _ZN2bt11DataChecker16staticMetaObjectE@Base 1.1~rc1
 _ZN2bt11DataChecker6statusEjjjj@Base 1.1~rc1
 _ZN2bt11DataChecker8progressEjj@Base 1.1~rc1
 _ZN2bt11DataCheckerC1Ev@Base 1.1~rc1
 _ZN2bt11DataCheckerC2Ev@Base 1.1~rc1
 _ZN2bt11DataCheckerD0Ev@Base 1.1~rc1
 _ZN2bt11DataCheckerD1Ev@Base 1.1~rc1
 _ZN2bt11DataCheckerD2Ev@Base 1.1~rc1
 _ZN2bt11HTTPTracker10doAnnounceERK4KUrl@Base 1.1~rc1
 _ZN2bt11HTTPTracker10proxy_portE@Base 1.1~rc1
 _ZN2bt11HTTPTracker10updateDataERK10QByteArray@Base 1.1~rc1
 _ZN2bt11HTTPTracker11qt_metacallEN11QMetaObject4CallEiPPv@Base 1.1~rc1
 _ZN2bt11HTTPTracker11qt_metacastEPKc@Base 1.1~rc1
 _ZN2bt11HTTPTracker11setUseQHttpEb@Base 1.1~rc1
 _ZN2bt11HTTPTracker12manualUpdateEv@Base 1.1~rc1
 _ZN2bt11HTTPTracker13setupMetaDataERN3KIO8MetaDataE@Base 1.1~rc1
 _ZN2bt11HTTPTracker14onScrapeResultEP4KJob@Base 1.1~rc1
 _ZN2bt11HTTPTracker15doAnnounceQueueEv@Base 1.1~rc1
 _ZN2bt11HTTPTracker15setProxyEnabledEb@Base 1.1~rc1
 _ZN2bt11HTTPTracker16onAnnounceResultERK4KUrlRK10QByteArrayP4KJob@Base 1.1~rc1
 _ZN2bt11HTTPTracker16staticMetaObjectE@Base 1.1~rc1
 _ZN2bt11HTTPTracker19onKIOAnnounceResultEP4KJob@Base 1.1~rc1
 _ZN2bt11HTTPTracker21emitInvalidURLFailureEv@Base 1.1~rc1
 _ZN2bt11HTTPTracker21onQHttpAnnounceResultEP4KJob@Base 1.1~rc1
 _ZN2bt11HTTPTracker4stopEPNS_7WaitJobE@Base 1.1~rc1
 _ZN2bt11HTTPTracker5proxyE@Base 1.1~rc1
 _ZN2bt11HTTPTracker5startEv@Base 1.1~rc1
 _ZN2bt11HTTPTracker6scrapeEv@Base 1.1~rc1
 _ZN2bt11HTTPTracker8proxy_onE@Base 1.1~rc1
 _ZN2bt11HTTPTracker8setProxyERK7QStringt@Base 1.1~rc1
 _ZN2bt11HTTPTracker9completedEv@Base 1.1~rc1
 _ZN2bt11HTTPTracker9doRequestEPNS_7WaitJobE@Base 1.1~rc1
 _ZN2bt11HTTPTracker9onTimeoutEv@Base 1.1~rc1
 _ZN2bt11HTTPTracker9use_qhttpE@Base 1.1~rc1
 _ZN2bt11HTTPTrackerC1ERK4KUrlPNS_17TrackerDataSourceERKNS_6PeerIDEi@Base 1.1~rc1
 _ZN2bt11HTTPTrackerC2ERK4KUrlPNS_17TrackerDataSourceERKNS_6PeerIDEi@Base 1.1~rc1
 _ZN2bt11HTTPTrackerD0Ev@Base 1.1~rc1
 _ZN2bt11HTTPTrackerD1Ev@Base 1.1~rc1
 _ZN2bt11HTTPTrackerD2Ev@Base 1.1~rc1
 _ZN2bt11PeerManager10allowChunkEPNS_13PeerInterfaceEj@Base 1.1~rc1
 _ZN2bt11PeerManager10peerKilledEPNS_4PeerE@Base 1.1~rc1
 _ZN2bt11PeerManager11connectedToERKNS_6PeerIDE@Base 1.1~rc1
 _ZN2bt11PeerManager11killSeedersEv@Base 1.1~rc1
 _ZN2bt11PeerManager11qt_metacallEN11QMetaObject4CallEiPPv@Base 1.1~rc1
 _ZN2bt11PeerManager11qt_metacastEPKc@Base 1.1~rc1
 _ZN2bt11PeerManager11rerunChokerEv@Base 1.1~rc1
 _ZN2bt11PeerManager11setGroupIDsEjj@Base 1.1~rc1
 _ZN2bt11PeerManager12loadPeerListERK7QString@Base 1.1~rc1
 _ZN2bt11PeerManager12savePeerListERK7QString@Base 1.1~rc1
 _ZN2bt11PeerManager13newConnectionE14QSharedPointerIN3mse12StreamSocketEERKNS_6PeerIDEj@Base 1.1~rc1
 _ZN2bt11PeerManager13pieceReceivedERKNS_5PieceE@Base 1.1~rc1
 _ZN2bt11PeerManager13setPexEnabledEb@Base 1.1~rc1
 _ZN2bt11PeerManager14bitSetReceivedEPNS_4PeerERKNS_6BitSetE@Base 1.1~rc1
 _ZN2bt11PeerManager14clearDeadPeersEv@Base 1.1~rc1
 _ZN2bt11PeerManager14connectToPeersEv@Base 1.1~rc1
 _ZN2bt11PeerManager14killStalePeersEv@Base 1.1~rc1
 _ZN2bt11PeerManager15getChunkCounterEv@Base 1.1~rc1
 _ZN2bt11PeerManager15max_connectionsE@Base 1.1~rc1
 _ZN2bt11PeerManager15peerSourceReadyEPNS_10PeerSourceE@Base 1.1~rc1
 _ZN2bt11PeerManager15setPieceHandlerEPNS_12PieceHandlerE@Base 1.1~rc1
 _ZN2bt11PeerManager15setSuperSeedingEbRKNS_6BitSetE@Base 1.1~rc1
 _ZN2bt11PeerManager15setWantedChunksERKNS_6BitSetE@Base 1.1~rc1
 _ZN2bt11PeerManager16addPotentialPeerERKNS_13PotentialPeerE@Base 1.1~rc1
 _ZN2bt11PeerManager16killUninterestedEv@Base 1.1~rc1
 _ZN2bt11PeerManager16staticMetaObjectE@Base 1.1~rc1
 _ZN2bt11PeerManager17onResolverResultsEN8KNetwork16KResolverResultsE@Base 1.1~rc1
 _ZN2bt11PeerManager17peerAuthenticatedEPNS_12AuthenticateE12QWeakPointerINS_13PeerConnectorEEb@Base 1.1~rc1
 _ZN2bt11PeerManager17setMaxConnectionsEj@Base 1.1~rc1
 _ZN2bt11PeerManager17total_connectionsE@Base 1.1~rc1
 _ZN2bt11PeerManager18portPacketReceivedERK7QStringt@Base 1.1~rc1
 _ZN2bt11PeerManager19closeAllConnectionsEv@Base 1.1~rc1
 _ZN2bt11PeerManager21max_total_connectionsE@Base 1.1~rc1
 _ZN2bt11PeerManager22setMaxTotalConnectionsEj@Base 1.1~rc1
 _ZN2bt11PeerManager3pexERK10QByteArray@Base 1.1~rc1
 _ZN2bt11PeerManager4haveEPNS_4PeerEj@Base 1.1~rc1
 _ZN2bt11PeerManager4stopEv@Base 1.1~rc1
 _ZN2bt11PeerManager5pauseEv@Base 1.1~rc1
 _ZN2bt11PeerManager5startEb@Base 1.1~rc1
 _ZN2bt11PeerManager5visitERNS0_11PeerVisitorE@Base 1.1~rc1
 _ZN2bt11PeerManager6updateEv@Base 1.1~rc1
 _ZN2bt11PeerManager7Private10createPeerE14QSharedPointerIN3mse12StreamSocketEERKNS_6PeerIDEjb@Base 1.1~rc1
 _ZN2bt11PeerManager7Private11killBadPeerEv@Base 1.1~rc1
 _ZN2bt11PeerManager7Private14connectToPeersEv@Base 1.1~rc1
 _ZN2bt11PeerManager7Private21updateAvailableChunksEv@Base 1.1~rc1
 _ZN2bt11PeerManager7Private4haveEPNS_4PeerEj@Base 1.1~rc1
 _ZN2bt11PeerManager7Private6updateEv@Base 1.1~rc1
 _ZN2bt11PeerManager7PrivateC1EPS0_RNS_7TorrentE@Base 1.1~rc1
 _ZN2bt11PeerManager7PrivateC2EPS0_RNS_7TorrentE@Base 1.1~rc1
 _ZN2bt11PeerManager7PrivateD1Ev@Base 1.1~rc1
 _ZN2bt11PeerManager7PrivateD2Ev@Base 1.1~rc1
 _ZN2bt11PeerManager7newPeerEPNS_4PeerE@Base 1.1~rc1
 _ZN2bt11PeerManager7unpauseEv@Base 1.1~rc1
 _ZN2bt11PeerManager8findPeerEPNS_15PieceDownloaderE@Base 1.1~rc1
 _ZN2bt11PeerManager8findPeerEj@Base 1.1~rc1
 _ZN2bt11PeerManager8sendHaveEj@Base 1.1~rc1
 _ZN2bt11PeerManagerC1ERNS_7TorrentE@Base 1.1~rc1
 _ZN2bt11PeerManagerC2ERNS_7TorrentE@Base 1.1~rc1
 _ZN2bt11PeerManagerD0Ev@Base 1.1~rc1
 _ZN2bt11PeerManagerD1Ev@Base 1.1~rc1
 _ZN2bt11PeerManagerD2Ev@Base 1.1~rc1
 _ZN2bt11SHA1HashGen3endEv@Base 1.1~rc1
 _ZN2bt11SHA1HashGen5startEv@Base 1.1~rc1
 _ZN2bt11SHA1HashGen6updateEPKhj@Base 1.1~rc1
 _ZN2bt11SHA1HashGen8generateEPKhj@Base 1.1~rc1
 _ZN2bt11SHA1HashGenC1Ev@Base 1.1~rc1
 _ZN2bt11SHA1HashGenC2Ev@Base 1.1~rc1
 _ZN2bt11SHA1HashGenD1Ev@Base 1.1~rc1
 _ZN2bt11SHA1HashGenD2Ev@Base 1.1~rc1
 _ZN2bt11SuperSeeder11peerRemovedEPNS_13PeerInterfaceE@Base 1.1~rc1
 _ZN2bt11SuperSeeder4dumpEv@Base 1.1~rc1
 _ZN2bt11SuperSeeder4haveEPNS_13PeerInterfaceEj@Base 1.1~rc1
 _ZN2bt11SuperSeeder6bitsetEPNS_13PeerInterfaceERKNS_6BitSetE@Base 1.1~rc1
 _ZN2bt11SuperSeeder7haveAllEPNS_13PeerInterfaceE@Base 1.1~rc1
 _ZN2bt11SuperSeeder9peerAddedEPNS_13PeerInterfaceE@Base 1.1~rc1
 _ZN2bt11SuperSeeder9sendChunkEPNS_13PeerInterfaceE@Base 1.1~rc1
 _ZN2bt11SuperSeederC1EjPNS_17SuperSeederClientE@Base 1.1~rc1
 _ZN2bt11SuperSeederC2EjPNS_17SuperSeederClientE@Base 1.1~rc1
 _ZN2bt11SuperSeederD0Ev@Base 1.1~rc1
 _ZN2bt11SuperSeederD1Ev@Base 1.1~rc1
 _ZN2bt11SuperSeederD2Ev@Base 1.1~rc1
 _ZN2bt11TorrentFile11qt_metacallEN11QMetaObject4CallEiPPv@Base 1.1~rc1
 _ZN2bt11TorrentFile11qt_metacastEPKc@Base 1.1~rc1
 _ZN2bt11TorrentFile11setPriorityENS_8PriorityE@Base 1.1~rc1
 _ZN2bt11TorrentFile16setDoNotDownloadEb@Base 1.1~rc1
 _ZN2bt11TorrentFile16staticMetaObjectE@Base 1.1~rc1
 _ZN2bt11TorrentFile25emitDownloadStatusChangedEv@Base 1.1~rc1
 _ZN2bt11TorrentFile25updateNumDownloadedChunksERNS_12ChunkManagerE@Base 1.1~rc1
 _ZN2bt11TorrentFile4nullE@Base 1.1~rc1
 _ZN2bt11TorrentFileC1EPNS_7TorrentE@Base 1.1~rc1
 _ZN2bt11TorrentFileC1EPNS_7TorrentEjRK7QStringyyy@Base 1.1~rc1
 _ZN2bt11TorrentFileC1ERKS0_@Base 1.1~rc1
 _ZN2bt11TorrentFileC2EPNS_7TorrentE@Base 1.1~rc1
 _ZN2bt11TorrentFileC2EPNS_7TorrentEjRK7QStringyyy@Base 1.1~rc1
 _ZN2bt11TorrentFileC2ERKS0_@Base 1.1~rc1
 _ZN2bt11TorrentFileD0Ev@Base 1.1~rc1
 _ZN2bt11TorrentFileD1Ev@Base 1.1~rc1
 _ZN2bt11TorrentFileD2Ev@Base 1.1~rc1
 _ZN2bt11TorrentFileaSERKS0_@Base 1.1~rc1
 _ZN2bt11UPnPService11setPropertyERK7QStringS3_@Base 1.1~rc1
 _ZN2bt11UPnPService5clearEv@Base 1.1~rc1
 _ZN2bt11UPnPServiceC1ERKS0_@Base 1.1~rc1
 _ZN2bt11UPnPServiceC1Ev@Base 1.1~rc1
 _ZN2bt11UPnPServiceC2ERKS0_@Base 1.1~rc1
 _ZN2bt11UPnPServiceC2Ev@Base 1.1~rc1
 _ZN2bt11UPnPServiceD1Ev@Base 1.1.2
 _ZN2bt11UPnPServiceD2Ev@Base 1.1.2
 _ZN2bt11UPnPServiceaSERKS0_@Base 1.1~rc1
 _ZN2bt11WriteUint16EPhjt@Base 1.1~rc1
 _ZN2bt11WriteUint32EPhjj@Base 1.1~rc1
 _ZN2bt11WriteUint64EPhjy@Base 1.1~rc1
 _ZN2bt12CacheFactoryC1Ev@Base 1.1~rc1
 _ZN2bt12CacheFactoryC2Ev@Base 1.1~rc1
 _ZN2bt12CacheFactoryD0Ev@Base 1.1~rc1
 _ZN2bt12CacheFactoryD1Ev@Base 1.1~rc1
 _ZN2bt12CacheFactoryD2Ev@Base 1.1~rc1
 _ZN2bt12ChunkCounter3decEj@Base 1.1~rc1
 _ZN2bt12ChunkCounter3incEj@Base 1.1~rc1
 _ZN2bt12ChunkCounter5resetEv@Base 1.1~rc1
 _ZN2bt12ChunkCounter9decBitSetERKNS_6BitSetE@Base 1.1~rc1
 _ZN2bt12ChunkCounter9incBitSetERKNS_6BitSetE@Base 1.1~rc1
 _ZN2bt12ChunkCounterC1Ej@Base 1.1~rc1
 _ZN2bt12ChunkCounterC2Ej@Base 1.1~rc1
 _ZN2bt12ChunkCounterD0Ev@Base 1.1~rc1
 _ZN2bt12ChunkCounterD1Ev@Base 1.1~rc1
 _ZN2bt12ChunkCounterD2Ev@Base 1.1~rc1
 _ZN2bt12ChunkManager10prioritiseEjjNS_8PriorityE@Base 1.1~rc1
 _ZN2bt12ChunkManager10resetChunkEj@Base 1.1~rc1
 _ZN2bt12ChunkManager11createFilesEb@Base 1.1~rc1
 _ZN2bt12ChunkManager11dataCheckedERKNS_6BitSetE@Base 1.1~rc1
 _ZN2bt12ChunkManager11qt_metacallEN11QMetaObject4CallEiPPv@Base 1.1~rc1
 _ZN2bt12ChunkManager11qt_metacastEPKc@Base 1.1~rc1
 _ZN2bt12ChunkManager11updateStatsEv@Base 1.1~rc1
 _ZN2bt12ChunkManager13changeDataDirERK7QString@Base 1.1~rc1
 _ZN2bt12ChunkManager13do_data_checkE@Base 1.1~rc1
 _ZN2bt12ChunkManager13loadIndexFileEv@Base 1.1~rc1
 _ZN2bt12ChunkManager13moveDataFilesERK4QMapIPNS_20TorrentFileInterfaceE7QStringE@Base 1.1~rc1
 _ZN2bt12ChunkManager13moveDataFilesERK7QString@Base 1.1~rc1
 _ZN2bt12ChunkManager15chunkDownloadedEj@Base 1.1~rc1
 _ZN2bt12ChunkManager15deleteDataFilesEv@Base 1.1~rc1
 _ZN2bt12ChunkManager15dndMissingFilesEv@Base 1.1~rc1
 _ZN2bt12ChunkManager15hasMissingFilesER11QStringList@Base 1.1~rc1
 _ZN2bt12ChunkManager15setPreviewSizesEjj@Base 1.1~rc1
 _ZN2bt12ChunkManager16changeOutputPathERK7QString@Base 1.1~rc1
 _ZN2bt12ChunkManager16checkMemoryUsageEv@Base 1.1~rc1
 _ZN2bt12ChunkManager16staticMetaObjectE@Base 1.1~rc1
 _ZN2bt12ChunkManager18debugPrintMemUsageEv@Base 1.1~rc1
 _ZN2bt12ChunkManager18preview_size_audioE@Base 1.1~rc1
 _ZN2bt12ChunkManager18preview_size_videoE@Base 1.1~rc1
 _ZN2bt12ChunkManager20preallocateDiskSpaceEPNS_19PreallocationThreadE@Base 1.1~rc1
 _ZN2bt12ChunkManager20recreateMissingFilesEv@Base 1.1~rc1
 _ZN2bt12ChunkManager21moveDataFilesFinishedEPNS_3JobE@Base 1.1~rc1
 _ZN2bt12ChunkManager21moveDataFilesFinishedERK4QMapIPNS_20TorrentFileInterfaceE7QStringEPNS_3JobE@Base 1.1~rc1
 _ZN2bt12ChunkManager23downloadPriorityChangedEPNS_11TorrentFileENS_8PriorityES3_@Base 1.1~rc1
 _ZN2bt12ChunkManager29markExistingFilesAsDownloadedEv@Base 1.1~rc1
 _ZN2bt12ChunkManager29max_chunk_size_for_data_checkE@Base 1.1~rc1
 _ZN2bt12ChunkManager4stopEv@Base 1.1~rc1
 _ZN2bt12ChunkManager5startEv@Base 1.1~rc1
 _ZN2bt12ChunkManager7Private12dumpPriorityEPNS_11TorrentFileE@Base 1.1~rc1
 _ZN2bt12ChunkManager7Private12loadFileInfoEv@Base 1.1~rc1
 _ZN2bt12ChunkManager7Private12saveFileInfoEv@Base 1.1~rc1
 _ZN2bt12ChunkManager7Private13loadIndexFileEv@Base 1.1~rc1
 _ZN2bt12ChunkManager7Private13saveIndexFileEv@Base 1.1~rc1
 _ZN2bt12ChunkManager7Private15setupPrioritiesEv@Base 1.1~rc1
 _ZN2bt12ChunkManager7Private16loadPriorityInfoEv@Base 1.1~rc1
 _ZN2bt12ChunkManager7Private16resetBorderChunkEjPNS_11TorrentFileE@Base 1.1~rc1
 _ZN2bt12ChunkManager7Private16savePriorityInfoEv@Base 1.1~rc1
 _ZN2bt12ChunkManager7Private17doPreviewPriorityERNS_11TorrentFileE@Base 1.1~rc1
 _ZN2bt12ChunkManager7Private19writeIndexFileEntryEPNS_5ChunkE@Base 1.1~rc1
 _ZN2bt12ChunkManager7Private20allFilesExistOfChunkEj@Base 1.1~rc1
 _ZN2bt12ChunkManager7Private20createBorderChunkSetEv@Base 1.1~rc1
 _ZN2bt12ChunkManager7Private21downloadStatusChangedEPNS_11TorrentFileEb@Base 1.1~rc1
 _ZN2bt12ChunkManager7Private22setBorderChunkPriorityEjNS_8PriorityE@Base 1.1~rc1
 _ZN2bt12ChunkManager7PrivateC1EPS0_RNS_7TorrentERK7QStringS7_bPNS_12CacheFactoryE@Base 1.1~rc1
 _ZN2bt12ChunkManager7PrivateC2EPS0_RNS_7TorrentERK7QStringS7_bPNS_12CacheFactoryE@Base 1.1~rc1
 _ZN2bt12ChunkManager7PrivateD1Ev@Base 1.1~rc1
 _ZN2bt12ChunkManager7PrivateD2Ev@Base 1.1~rc1
 _ZN2bt12ChunkManager7excludeEjj@Base 1.1~rc1
 _ZN2bt12ChunkManager7includeEjj@Base 1.1~rc1
 _ZN2bt12ChunkManager8excludedEjj@Base 1.1~rc1
 _ZN2bt12ChunkManager8getChunkEj@Base 1.1~rc1
 _ZN2bt12ChunkManager8includedEjj@Base 1.1~rc1
 _ZN2bt12ChunkManager9corruptedEj@Base 1.1~rc1
 _ZN2bt12ChunkManager9diskUsageEv@Base 1.1~rc1
 _ZN2bt12ChunkManagerC1ERNS_7TorrentERK7QStringS5_bPNS_12CacheFactoryE@Base 1.1~rc1
 _ZN2bt12ChunkManagerC2ERNS_7TorrentERK7QStringS5_bPNS_12CacheFactoryE@Base 1.1~rc1
 _ZN2bt12ChunkManagerD0Ev@Base 1.1~rc1
 _ZN2bt12ChunkManagerD1Ev@Base 1.1~rc1
 _ZN2bt12ChunkManagerD2Ev@Base 1.1~rc1
 _ZN2bt12DirSeparatorEv@Base 1.1~rc1
 _ZN2bt12MakeFilePathERK7QStringb@Base 1.1~rc1
 _ZN2bt12MaxOpenFilesEv@Base 1.1~rc1
 _ZN2bt12PeerIDPrefixEv@Base 1.1~rc1
 _ZN2bt12TorrentStatsC1Ev@Base 1.1~rc1
 _ZN2bt12TorrentStatsC2Ev@Base 1.1~rc1
 _ZN2bt12TorrentStatsD1Ev@Base 1.1.2
 _ZN2bt12TorrentStatsD2Ev@Base 1.1.2
 _ZN2bt12TrackersList5mergeEPKNS_11TrackerTierE@Base 1.1~rc1
 _ZN2bt12TrackersListC1Ev@Base 1.1~rc1
 _ZN2bt12TrackersListC2Ev@Base 1.1~rc1
 _ZN2bt12TrackersListD0Ev@Base 1.1~rc1
 _ZN2bt12TrackersListD1Ev@Base 1.1~rc1
 _ZN2bt12TrackersListD2Ev@Base 1.1~rc1
 _ZN2bt12TruncateFileERK7QStringy@Base 1.1~rc1
 _ZN2bt12TruncateFileEiyb@Base 1.1~rc1
 _ZN2bt13AccessManager12addBlockListEPNS_18BlockListInterfaceE@Base 1.1~rc1
 _ZN2bt13AccessManager15removeBlockListEPNS_18BlockListInterfaceE@Base 1.1~rc1
 _ZN2bt13AccessManager7allowedERK7QString@Base 1.1~rc1
 _ZN2bt13AccessManager7allowedERKN3net7AddressE@Base 1.1~rc1
 _ZN2bt13AccessManager7banPeerERK7QString@Base 1.1~rc1
 _ZN2bt13AccessManager8instanceEv@Base 1.1~rc1
 _ZN2bt13AccessManagerC1Ev@Base 1.1~rc1
 _ZN2bt13AccessManagerC2Ev@Base 1.1~rc1
 _ZN2bt13AccessManagerD0Ev@Base 1.1~rc1
 _ZN2bt13AccessManagerD1Ev@Base 1.1~rc1
 _ZN2bt13AccessManagerD2Ev@Base 1.1~rc1
 _ZN2bt13AddLogMonitorEPNS_19LogMonitorInterfaceE@Base 1.1~rc1
 _ZN2bt13BytesToStringEy@Base 1.1~rc1
 _ZN2bt13ChunkDownload10onRejectedERKNS_7RequestE@Base 1.1~rc1
 _ZN2bt13ChunkDownload10updateHashEv@Base 1.1~rc1
 _ZN2bt13ChunkDownload11qt_metacallEN11QMetaObject4CallEiPPv@Base 1.1~rc1
 _ZN2bt13ChunkDownload11qt_metacastEPKc@Base 1.1~rc1
 _ZN2bt13ChunkDownload11sendCancelsEPNS_15PieceDownloaderE@Base 1.1~rc1
 _ZN2bt13ChunkDownload11sendRequestEPNS_15PieceDownloaderE@Base 1.1~rc1
 _ZN2bt13ChunkDownload12sendRequestsEv@Base 1.1~rc1
 _ZN2bt13ChunkDownload13endgameCancelERKNS_5PieceE@Base 1.1~rc1
 _ZN2bt13ChunkDownload13notDownloadedERKNS_7RequestEb@Base 1.1~rc1
 _ZN2bt13ChunkDownload13releaseAllPDsEv@Base 1.1~rc1
 _ZN2bt13ChunkDownload16staticMetaObjectE@Base 1.1~rc1
 _ZN2bt13ChunkDownload17getOnlyDownloaderEv@Base 1.1~rc1
 _ZN2bt13ChunkDownload4loadERNS_4FileERNS_19ChunkDownloadHeaderEb@Base 1.1~rc1
 _ZN2bt13ChunkDownload4saveERNS_4FileE@Base 1.1~rc1
 _ZN2bt13ChunkDownload5pieceERKNS_5PieceERb@Base 1.1~rc1
 _ZN2bt13ChunkDownload6assignEPNS_15PieceDownloaderE@Base 1.1~rc1
 _ZN2bt13ChunkDownload6killedEPNS_15PieceDownloaderE@Base 1.1~rc1
 _ZN2bt13ChunkDownload6updateEv@Base 1.1~rc1
 _ZN2bt13ChunkDownload7releaseEPNS_15PieceDownloaderE@Base 1.1~rc1
 _ZN2bt13ChunkDownload8getStatsERNS_22ChunkDownloadInterface5StatsE@Base 1.1~rc1
 _ZN2bt13ChunkDownload9bestPieceEPNS_15PieceDownloaderE@Base 1.1~rc1
 _ZN2bt13ChunkDownload9cancelAllEv@Base 1.1~rc1
 _ZN2bt13ChunkDownload9onTimeoutERKNS_7RequestE@Base 1.1~rc1
 _ZN2bt13ChunkDownloadC1EPNS_5ChunkE@Base 1.1~rc1
 _ZN2bt13ChunkDownloadC2EPNS_5ChunkE@Base 1.1~rc1
 _ZN2bt13ChunkDownloadD0Ev@Base 1.1~rc1
 _ZN2bt13ChunkDownloadD1Ev@Base 1.1~rc1
 _ZN2bt13ChunkDownloadD2Ev@Base 1.1~rc1
 _ZN2bt13ExitOperation11qt_metacallEN11QMetaObject4CallEiPPv@Base 1.1~rc1
 _ZN2bt13ExitOperation11qt_metacastEPKc@Base 1.1~rc1
 _ZN2bt13ExitOperation16staticMetaObjectE@Base 1.1~rc1
 _ZN2bt13ExitOperation17operationFinishedEPS0_@Base 1.1~rc1
 _ZN2bt13ExitOperationC1Ev@Base 1.1~rc1
 _ZN2bt13ExitOperationC2Ev@Base 1.1~rc1
 _ZN2bt13ExitOperationD0Ev@Base 1.1~rc1
 _ZN2bt13ExitOperationD1Ev@Base 1.1~rc1
 _ZN2bt13ExitOperationD2Ev@Base 1.1~rc1
 _ZN2bt13FreeDiskSpaceERK7QStringRy@Base 1.1~rc1
 _ZN2bt13PeerConnector12setMaxActiveEj@Base 1.1~rc1
 _ZN2bt13PeerConnector14setWeakPointerE12QWeakPointerIS0_E@Base 1.1~rc1
 _ZN2bt13PeerConnector22authenticationFinishedEPNS_12AuthenticateEb@Base 1.1~rc1
 _ZN2bt13PeerConnector5startEv@Base 1.1~rc1
 _ZN2bt13PeerConnector7Private22authenticationFinishedEPNS_12AuthenticateEb@Base 1.1~rc1
 _ZN2bt13PeerConnector7Private5startENS0_6MethodE@Base 1.1~rc1
 _ZN2bt13PeerConnector8acquiredEv@Base 1.1~rc1
 _ZN2bt13PeerConnectorC1ERK7QStringtbPNS_11PeerManagerE@Base 1.1~rc1
 _ZN2bt13PeerConnectorC2ERK7QStringtbPNS_11PeerManagerE@Base 1.1~rc1
 _ZN2bt13PeerConnectorD0Ev@Base 1.1~rc1
 _ZN2bt13PeerConnectorD1Ev@Base 1.1~rc1
 _ZN2bt13PeerConnectorD2Ev@Base 1.1~rc1
 _ZN2bt13PeerInterface5StatsD1Ev@Base 1.1.2
 _ZN2bt13PeerInterface5StatsD2Ev@Base 1.1.2
 _ZN2bt13PeerInterfaceC1ERKNS_6PeerIDEj@Base 1.1~rc1
 _ZN2bt13PeerInterfaceC2ERKNS_6PeerIDEj@Base 1.1~rc1
 _ZN2bt13PeerInterfaceD0Ev@Base 1.1~rc1
 _ZN2bt13PeerInterfaceD1Ev@Base 1.1~rc1
 _ZN2bt13PeerInterfaceD2Ev@Base 1.1~rc1
 _ZN2bt13PotentialPeerD1Ev@Base 1.1.2
 _ZN2bt13PotentialPeerD2Ev@Base 1.1.2
 _ZN2bt13SetClientInfoERK7QStringiiiNS_11VersionTypeES2_@Base 1.1~rc1
 _ZN2bt13TimeEstimator10estimateKTEv@Base 1.1~rc1
 _ZN2bt13TimeEstimator11estimateCSAEv@Base 1.1~rc1
 _ZN2bt13TimeEstimator11m_algorithmE@Base 1.1~rc1
 _ZN2bt13TimeEstimator12estimateGASAEv@Base 1.1~rc1
 _ZN2bt13TimeEstimator12estimateMAVGEv@Base 1.1~rc1
 _ZN2bt13TimeEstimator12estimateWINXEv@Base 1.1~rc1
 _ZN2bt13TimeEstimator12setAlgorithmENS0_11ETAlgorithmE@Base 1.1~rc1
 _ZN2bt13TimeEstimator8estimateEv@Base 1.1~rc1
 _ZN2bt13TimeEstimatorC1EPNS_14TorrentControlE@Base 1.1~rc1
 _ZN2bt13TimeEstimatorC2EPNS_14TorrentControlE@Base 1.1~rc1
 _ZN2bt13TimeEstimatorD1Ev@Base 1.1~rc1
 _ZN2bt13TimeEstimatorD2Ev@Base 1.1~rc1
 _ZN2bt14CircularBuffer10firstRangeEv@Base 1.1~rc1
 _ZN2bt14CircularBuffer11secondRangeEv@Base 1.1~rc1
 _ZN2bt14CircularBuffer4readEPhj@Base 1.1~rc1
 _ZN2bt14CircularBuffer5writeEPKhj@Base 1.1~rc1
 _ZN2bt14CircularBufferC1Ej@Base 1.1~rc1
 _ZN2bt14CircularBufferC2Ej@Base 1.1~rc1
 _ZN2bt14CircularBufferD0Ev@Base 1.1~rc1
 _ZN2bt14CircularBufferD1Ev@Base 1.1~rc1
 _ZN2bt14CircularBufferD2Ev@Base 1.1~rc1
 _ZN2bt14CompressThread3runEv@Base 1.1~rc1
 _ZN2bt14CompressThread6cancelEv@Base 1.1~rc1
 _ZN2bt14CompressThreadC1ERK7QString@Base 1.1~rc1
 _ZN2bt14CompressThreadC2ERK7QString@Base 1.1~rc1
 _ZN2bt14CompressThreadD0Ev@Base 1.1~rc1
 _ZN2bt14CompressThreadD1Ev@Base 1.1~rc1
 _ZN2bt14CompressThreadD2Ev@Base 1.1~rc1
 _ZN2bt14DataCheckerJob11qt_metacallEN11QMetaObject4CallEiPPv@Base 1.1~rc1
 _ZN2bt14DataCheckerJob11qt_metacastEPKc@Base 1.1~rc1
 _ZN2bt14DataCheckerJob14threadFinishedEv@Base 1.1~rc1
 _ZN2bt14DataCheckerJob16staticMetaObjectE@Base 1.1~rc1
 _ZN2bt14DataCheckerJob4killEb@Base 1.1~rc1
 _ZN2bt14DataCheckerJob5startEv@Base 1.1~rc1
 _ZN2bt14DataCheckerJob6statusEjjjj@Base 1.1~rc1
 _ZN2bt14DataCheckerJob8acquiredEv@Base 1.1~rc1
 _ZN2bt14DataCheckerJob8progressEjj@Base 1.1~rc1
 _ZN2bt14DataCheckerJobC1EbPNS_14TorrentControlE@Base 1.1~rc1
 _ZN2bt14DataCheckerJobC2EbPNS_14TorrentControlE@Base 1.1~rc1
 _ZN2bt14DataCheckerJobD0Ev@Base 1.1~rc1
 _ZN2bt14DataCheckerJobD1Ev@Base 1.1~rc1
 _ZN2bt14DataCheckerJobD2Ev@Base 1.1~rc1
 _ZN2bt14ExtractFileJob11qt_metacallEN11QMetaObject4CallEiPPv@Base 1.1~rc1
 _ZN2bt14ExtractFileJob11qt_metacastEPKc@Base 1.1~rc1
 _ZN2bt14ExtractFileJob16staticMetaObjectE@Base 1.1~rc1
 _ZN2bt14ExtractFileJob17extractThreadDoneEv@Base 1.1~rc1
 _ZN2bt14ExtractFileJob4killEb@Base 1.1~rc1
 _ZN2bt14ExtractFileJob5startEv@Base 1.1~rc1
 _ZN2bt14ExtractFileJobC1EP8KArchiveRK7QStringS5_@Base 1.1~rc1
 _ZN2bt14ExtractFileJobC2EP8KArchiveRK7QStringS5_@Base 1.1~rc1
 _ZN2bt14ExtractFileJobD0Ev@Base 1.1~rc1
 _ZN2bt14ExtractFileJobD1Ev@Base 1.1~rc1
 _ZN2bt14ExtractFileJobD2Ev@Base 1.1~rc1
 _ZN2bt14FileNameToLongERK7QString@Base 1.1~rc1
 _ZN2bt14KIOAnnounceJob11qt_metacallEN11QMetaObject4CallEiPPv@Base 1.1~rc1
 _ZN2bt14KIOAnnounceJob11qt_metacastEPKc@Base 1.1~rc1
 _ZN2bt14KIOAnnounceJob16staticMetaObjectE@Base 1.1~rc1
 _ZN2bt14KIOAnnounceJob4dataEPN3KIO3JobERK10QByteArray@Base 1.1~rc1
 _ZN2bt14KIOAnnounceJob6doKillEv@Base 1.1~rc1
 _ZN2bt14KIOAnnounceJob8finishedEP4KJob@Base 1.1~rc1
 _ZN2bt14KIOAnnounceJobC1ERK4KUrlRKN3KIO8MetaDataE@Base 1.1~rc1
 _ZN2bt14KIOAnnounceJobC2ERK4KUrlRKN3KIO8MetaDataE@Base 1.1~rc1
 _ZN2bt14KIOAnnounceJobD0Ev@Base 1.1~rc1
 _ZN2bt14KIOAnnounceJobD1Ev@Base 1.1~rc1
 _ZN2bt14KIOAnnounceJobD2Ev@Base 1.1~rc1
 _ZN2bt14MaximizeLimitsEv@Base 1.1~rc1
 _ZN2bt14TorrentControl10addWebSeedERK4KUrl@Base 1.1~rc1
 _ZN2bt14TorrentControl10downloadedEj@Base 1.1~rc1
 _ZN2bt14TorrentControl10getWebSeedEj@Base 1.1~rc1
 _ZN2bt14TorrentControl10setMonitorEPNS_16MonitorInterfaceE@Base 1.1~rc1
 _ZN2bt14TorrentControl10setupStatsEv@Base 1.1~rc1
 _ZN2bt14TorrentControl11allJobsDoneEv@Base 1.1~rc1
 _ZN2bt14TorrentControl11createFilesEv@Base 1.1~rc1
 _ZN2bt14TorrentControl11handleErrorERK7QString@Base 1.1~rc1
 _ZN2bt14TorrentControl11preallocateEv@Base 1.1~rc1
 _ZN2bt14TorrentControl11qt_metacallEN11QMetaObject4CallEiPPv@Base 1.1~rc1
 _ZN2bt14TorrentControl11qt_metacastEPKc@Base 1.1~rc1
 _ZN2bt14TorrentControl11setPriorityEi@Base 1.1~rc1
 _ZN2bt14TorrentControl11updateStatsEv@Base 1.1~rc1
 _ZN2bt14TorrentControl12auto_recheckE@Base 1.1~rc1
 _ZN2bt14TorrentControl12changeTorDirERK7QString@Base 1.1~rc1
 _ZN2bt14TorrentControl12initInternalEPNS_21QueueManagerInterfaceERK7QStringS5_@Base 1.1~rc1
 _ZN2bt14TorrentControl12loadEncodingEv@Base 1.1~rc1
 _ZN2bt14TorrentControl12overMaxRatioEv@Base 1.1~rc1
 _ZN2bt14TorrentControl12updateStatusEv@Base 1.1~rc1
 _ZN2bt14TorrentControl13InternalStatsD1Ev@Base 1.1.2
 _ZN2bt14TorrentControl13InternalStatsD2Ev@Base 1.1.2
 _ZN2bt14TorrentControl13addPeerSourceEPNS_10PeerSourceE@Base 1.1~rc1
 _ZN2bt14TorrentControl13checkExistingEPNS_21QueueManagerInterfaceE@Base 1.1~rc1
 _ZN2bt14TorrentControl13continueStartEv@Base 1.1~rc1
 _ZN2bt14TorrentControl13loadOutputDirEv@Base 1.1~rc1
 _ZN2bt14TorrentControl13min_diskspaceE@Base 1.1~rc1
 _ZN2bt14TorrentControl13onPeerRemovedEPNS_4PeerE@Base 1.1~rc1
 _ZN2bt14TorrentControl13removeWebSeedERK4KUrl@Base 1.1~rc1
 _ZN2bt14TorrentControl13scrapeTrackerEv@Base 1.1~rc1
 _ZN2bt14TorrentControl13updateTrackerEv@Base 1.1~rc1
 _ZN2bt14TorrentControl14afterDataCheckEPNS_14DataCheckerJobERKNS_6BitSetE@Base 1.1~rc1
 _ZN2bt14TorrentControl14checkDiskSpaceEb@Base 1.1~rc1
 _ZN2bt14TorrentControl14getTorrentFileEj@Base 1.1~rc1
 _ZN2bt14TorrentControl14setDisplayNameERK7QString@Base 1.1~rc1
 _ZN2bt14TorrentControl14setMaxSeedTimeEf@Base 1.1~rc1
 _ZN2bt14TorrentControl14setUploadPropsEjj@Base 1.1~rc1
 _ZN2bt14TorrentControl14startDataCheckEb@Base 1.1~rc1
 _ZN2bt14TorrentControl15announceAllowedEv@Base 1.1~rc1
 _ZN2bt14TorrentControl15beforeDataCheckEv@Base 1.1~rc1
 _ZN2bt14TorrentControl15changeOutputDirERK7QStringi@Base 1.1~rc1
 _ZN2bt14TorrentControl15changeTextCodecEP10QTextCodec@Base 1.1~rc1
 _ZN2bt14TorrentControl15deleteDataFilesEv@Base 1.1~rc1
 _ZN2bt14TorrentControl15dndMissingFilesEv@Base 1.1~rc1
 _ZN2bt14TorrentControl15getTrackersListEv@Base 1.1~rc1
 _ZN2bt14TorrentControl15hasMissingFilesER11QStringList@Base 1.1~rc1
 _ZN2bt14TorrentControl15overMaxSeedTimeEv@Base 1.1~rc1
 _ZN2bt14TorrentControl15setCacheFactoryEPNS_12CacheFactoryE@Base 1.1~rc1
 _ZN2bt14TorrentControl15setSuperSeedingEb@Base 1.1~rc1
 _ZN2bt14TorrentControl16getAssuredSpeedsERjS1_@Base 1.1~rc1
 _ZN2bt14TorrentControl16getTrafficLimitsERjS1_@Base 1.1~rc1
 _ZN2bt14TorrentControl16isFeatureEnabledENS_14TorrentFeatureE@Base 1.1~rc1
 _ZN2bt14TorrentControl16moveTorrentFilesERK4QMapIPNS_20TorrentFileInterfaceE7QStringE@Base 1.1~rc1
 _ZN2bt14TorrentControl16preallocFinishedERK7QStringb@Base 1.1~rc1
 _ZN2bt14TorrentControl16removePeerSourceEPNS_10PeerSourceE@Base 1.1~rc1
 _ZN2bt14TorrentControl16setAssuredSpeedsEjj@Base 1.1~rc1
 _ZN2bt14TorrentControl16setChunkSelectorEPNS_22ChunkSelectorInterfaceE@Base 1.1~rc1
 _ZN2bt14TorrentControl16setDownloadPropsEjj@Base 1.1~rc1
 _ZN2bt14TorrentControl16setMaxShareRatioEf@Base 1.1~rc1
 _ZN2bt14TorrentControl16setTrafficLimitsEjj@Base 1.1~rc1
 _ZN2bt14TorrentControl16staticMetaObjectE@Base 1.1~rc1
 _ZN2bt14TorrentControl17dataCheckFinishedEv@Base 1.1~rc1
 _ZN2bt14TorrentControl17setAllowedToStartEb@Base 1.1~rc1
 _ZN2bt14TorrentControl17setFeatureEnabledENS_14TorrentFeatureEb@Base 1.1~rc1
 _ZN2bt14TorrentControl17trackerScrapeDoneEv@Base 1.1~rc1
 _ZN2bt14TorrentControl18moveToCompletedDirEv@Base 1.1~rc1
 _ZN2bt14TorrentControl18updateRunningTimesEv@Base 1.1.1
 _ZN2bt14TorrentControl19completed_datacheckE@Base 1.1~rc1
 _ZN2bt14TorrentControl20recreateMissingFilesEv@Base 1.1~rc1
 _ZN2bt14TorrentControl21moveDataFilesFinishedEP4KJob@Base 1.1~rc1
 _ZN2bt14TorrentControl23createTorrentFileStreamEjbP7QObject@Base 1.1~rc1
 _ZN2bt14TorrentControl23downloadPriorityChangedEPNS_11TorrentFileENS_8PriorityES3_@Base 1.1~rc1
 _ZN2bt14TorrentControl23setUserModifiedFileNameERK7QString@Base 1.1~rc1
 _ZN2bt14TorrentControl25num_corrupted_for_recheckE@Base 1.1~rc1
 _ZN2bt14TorrentControl28moveDataFilesWithMapFinishedEP4KJob@Base 1.1~rc1
 _ZN2bt14TorrentControl29markExistingFilesAsDownloadedEv@Base 1.1~rc1
 _ZN2bt14TorrentControl4initEPNS_21QueueManagerInterfaceERK10QByteArrayRK7QStringS8_@Base 1.1~rc1
 _ZN2bt14TorrentControl4initEPNS_21QueueManagerInterfaceERK7QStringS5_S5_@Base 1.1~rc1
 _ZN2bt14TorrentControl4stopEPNS_7WaitJobE@Base 1.1~rc1
 _ZN2bt14TorrentControl5pauseEv@Base 1.1~rc1
 _ZN2bt14TorrentControl5startEv@Base 1.1~rc1
 _ZN2bt14TorrentControl6getETAEv@Base 1.1~rc1
 _ZN2bt14TorrentControl6updateEv@Base 1.1~rc1
 _ZN2bt14TorrentControl7unpauseEv@Base 1.1~rc1
 _ZN2bt14TorrentControl8rollbackEv@Base 1.1~rc1
 _ZN2bt14TorrentControl9corruptedEj@Base 1.1~rc1
 _ZN2bt14TorrentControl9doChokingEv@Base 1.1~rc1
 _ZN2bt14TorrentControl9loadStatsEv@Base 1.1~rc1
 _ZN2bt14TorrentControl9networkUpEv@Base 1.1~rc1
 _ZN2bt14TorrentControl9onIOErrorERK7QString@Base 1.1~rc1
 _ZN2bt14TorrentControl9onNewPeerEPNS_4PeerE@Base 1.1~rc1
 _ZN2bt14TorrentControl9saveStatsEv@Base 1.1~rc1
 _ZN2bt14TorrentControl9setQueuedEb@Base 1.1~rc1
 _ZN2bt14TorrentControl9setupDataEv@Base 1.1~rc1
 _ZN2bt14TorrentControl9setupDirsERK7QStringS3_@Base 1.1~rc1
 _ZN2bt14TorrentControlC1Ev@Base 1.1~rc1
 _ZN2bt14TorrentControlC2Ev@Base 1.1~rc1
 _ZN2bt14TorrentControlD0Ev@Base 1.1~rc1
 _ZN2bt14TorrentControlD1Ev@Base 1.1~rc1
 _ZN2bt14TorrentControlD2Ev@Base 1.1~rc1
 _ZN2bt14TorrentCreator10savePiecesERNS_8BEncoderE@Base 1.1~rc1
 _ZN2bt14TorrentCreator11qt_metacallEN11QMetaObject4CallEiPPv@Base 1.1~rc1
 _ZN2bt14TorrentCreator11qt_metacastEPKc@Base 1.1~rc1
 _ZN2bt14TorrentCreator11saveTorrentERK7QString@Base 1.1~rc1
 _ZN2bt14TorrentCreator13buildFileListERK7QString@Base 1.1~rc1
 _ZN2bt14TorrentCreator13calcHashMultiEv@Base 1.1~rc1
 _ZN2bt14TorrentCreator13calculateHashEv@Base 1.1~rc1
 _ZN2bt14TorrentCreator14calcHashSingleEv@Base 1.1~rc1
 _ZN2bt14TorrentCreator16staticMetaObjectE@Base 1.1~rc1
 _ZN2bt14TorrentCreator3runEv@Base 1.1~rc1
 _ZN2bt14TorrentCreator6makeTCERK7QString@Base 1.1~rc1
 _ZN2bt14TorrentCreator8saveFileERNS_8BEncoderERKNS_11TorrentFileE@Base 1.1~rc1
 _ZN2bt14TorrentCreator8saveInfoERNS_8BEncoderE@Base 1.1~rc1
 _ZN2bt14TorrentCreatorC1ERK7QStringRK11QStringListRKN4KUrl4ListEjS3_S3_bb@Base 1.1~rc1
 _ZN2bt14TorrentCreatorC2ERK7QStringRK11QStringListRKN4KUrl4ListEjS3_S3_bb@Base 1.1~rc1
 _ZN2bt14TorrentCreatorD0Ev@Base 1.1~rc1
 _ZN2bt14TorrentCreatorD1Ev@Base 1.1~rc1
 _ZN2bt14TorrentCreatorD2Ev@Base 1.1~rc1
 _ZN2bt14TrackerManager10addTrackerEPNS_7TrackerE@Base 1.1~rc1
 _ZN2bt14TrackerManager10addTrackerERK4KUrlbi@Base 1.1~rc1
 _ZN2bt14TrackerManager11getTrackersEv@Base 1.1~rc1
 _ZN2bt14TrackerManager11onTrackerOKEv@Base 1.1~rc1
 _ZN2bt14TrackerManager11qt_metacallEN11QMetaObject4CallEiPPv@Base 1.1~rc1
 _ZN2bt14TrackerManager11qt_metacastEPKc@Base 1.1~rc1
 _ZN2bt14TrackerManager12manualUpdateEv@Base 1.1~rc1
 _ZN2bt14TrackerManager13removeTrackerEPNS_16TrackerInterfaceE@Base 1.1~rc1
 _ZN2bt14TrackerManager13removeTrackerERK4KUrl@Base 1.1~rc1
 _ZN2bt14TrackerManager13selectTrackerEv@Base 1.1~rc1
 _ZN2bt14TrackerManager13switchTrackerEPNS_7TrackerE@Base 1.1~rc1
 _ZN2bt14TrackerManager14loadCustomURLsEv@Base 1.1~rc1
 _ZN2bt14TrackerManager14onTrackerErrorERK7QString@Base 1.1~rc1
 _ZN2bt14TrackerManager14restoreDefaultEv@Base 1.1~rc1
 _ZN2bt14TrackerManager14saveCustomURLsEv@Base 1.1~rc1
 _ZN2bt14TrackerManager16canRemoveTrackerEPNS_16TrackerInterfaceE@Base 1.1~rc1
 _ZN2bt14TrackerManager16staticMetaObjectE@Base 1.1~rc1
 _ZN2bt14TrackerManager17loadTrackerStatusEv@Base 1.1~rc1
 _ZN2bt14TrackerManager17saveTrackerStatusEv@Base 1.1~rc1
 _ZN2bt14TrackerManager17setCurrentTrackerEPNS_16TrackerInterfaceE@Base 1.1~rc1
 _ZN2bt14TrackerManager17setCurrentTrackerERK4KUrl@Base 1.1~rc1
 _ZN2bt14TrackerManager17setTrackerEnabledERK4KUrlb@Base 1.1~rc1
 _ZN2bt14TrackerManager21updateCurrentManuallyEv@Base 1.1~rc1
 _ZN2bt14TrackerManager4stopEPNS_7WaitJobE@Base 1.1~rc1
 _ZN2bt14TrackerManager5startEv@Base 1.1~rc1
 _ZN2bt14TrackerManager6scrapeEv@Base 1.1~rc1
 _ZN2bt14TrackerManager9completedEv@Base 1.1~rc1
 _ZN2bt14TrackerManagerC1EPNS_14TorrentControlEPNS_11PeerManagerE@Base 1.1~rc1
 _ZN2bt14TrackerManagerC2EPNS_14TorrentControlEPNS_11PeerManagerE@Base 1.1~rc1
 _ZN2bt14TrackerManagerD0Ev@Base 1.1~rc1
 _ZN2bt14TrackerManagerD1Ev@Base 1.1~rc1
 _ZN2bt14TrackerManagerD2Ev@Base 1.1~rc1
 _ZN2bt15CompressFileJob11qt_metacallEN11QMetaObject4CallEiPPv@Base 1.1~rc1
 _ZN2bt15CompressFileJob11qt_metacastEPKc@Base 1.1~rc1
 _ZN2bt15CompressFileJob16staticMetaObjectE@Base 1.1~rc1
 _ZN2bt15CompressFileJob22compressThreadFinishedEv@Base 1.1~rc1
 _ZN2bt15CompressFileJob4killEb@Base 1.1~rc1
 _ZN2bt15CompressFileJob5startEv@Base 1.1~rc1
 _ZN2bt15CompressFileJobC1ERK7QString@Base 1.1~rc1
 _ZN2bt15CompressFileJobC2ERK7QString@Base 1.1~rc1
 _ZN2bt15CompressFileJobD0Ev@Base 1.1~rc1
 _ZN2bt15CompressFileJobD1Ev@Base 1.1~rc1
 _ZN2bt15CompressFileJobD2Ev@Base 1.1~rc1
 _ZN2bt15HTTPAnnounceJob11qt_metacallEN11QMetaObject4CallEiPPv@Base 1.1~rc1
 _ZN2bt15HTTPAnnounceJob11qt_metacastEPKc@Base 1.1~rc1
 _ZN2bt15HTTPAnnounceJob11sendRequestEv@Base 1.1~rc1
 _ZN2bt15HTTPAnnounceJob14handleRedirectERK19QHttpResponseHeader@Base 1.1~rc1
 _ZN2bt15HTTPAnnounceJob15requestFinishedEib@Base 1.1~rc1
 _ZN2bt15HTTPAnnounceJob16staticMetaObjectE@Base 1.1~rc1
 _ZN2bt15HTTPAnnounceJob4killEb@Base 1.1~rc1
 _ZN2bt15HTTPAnnounceJob5startEv@Base 1.1~rc1
 _ZN2bt15HTTPAnnounceJob8readDataERK19QHttpResponseHeader@Base 1.1~rc1
 _ZN2bt15HTTPAnnounceJob8setProxyERK7QStringi@Base 1.1~rc1
 _ZN2bt15HTTPAnnounceJob9sslErrorsERK5QListI9QSslErrorE@Base 1.1~rc1
 _ZN2bt15HTTPAnnounceJobC1ERK4KUrl@Base 1.1~rc1
 _ZN2bt15HTTPAnnounceJobC2ERK4KUrl@Base 1.1~rc1
 _ZN2bt15HTTPAnnounceJobD0Ev@Base 1.1~rc1
 _ZN2bt15HTTPAnnounceJobD1Ev@Base 1.1~rc1
 _ZN2bt15HTTPAnnounceJobD2Ev@Base 1.1~rc1
 _ZN2bt15InitLibKTorrentEv@Base 1.1~rc1
 _ZN2bt15PieceDownloader11qt_metacallEN11QMetaObject4CallEiPPv@Base 1.1~rc1
 _ZN2bt15PieceDownloader11qt_metacastEPKc@Base 1.1~rc1
 _ZN2bt15PieceDownloader16staticMetaObjectE@Base 1.1~rc1
 _ZN2bt15PieceDownloader4grabEv@Base 1.1~rc1
 _ZN2bt15PieceDownloader7releaseEv@Base 1.1~rc1
 _ZN2bt15PieceDownloader8rejectedERKNS_7RequestE@Base 1.1~rc1
 _ZN2bt15PieceDownloader8timedoutERKNS_7RequestE@Base 1.1~rc1
 _ZN2bt15PieceDownloaderC1Ev@Base 1.1~rc1
 _ZN2bt15PieceDownloaderC2Ev@Base 1.1~rc1
 _ZN2bt15PieceDownloaderD0Ev@Base 1.1~rc1
 _ZN2bt15PieceDownloaderD1Ev@Base 1.1~rc1
 _ZN2bt15PieceDownloaderD2Ev@Base 1.1~rc1
 _ZN2bt15ResourceManager3addEPNS_8ResourceE@Base 1.1~rc1
 _ZN2bt15ResourceManager6removeEPNS_8ResourceE@Base 1.1~rc1
 _ZN2bt15ResourceManager6updateEv@Base 1.1~rc1
 _ZN2bt15ResourceManager7acquireEPNS_8ResourceE@Base 1.1~rc1
 _ZN2bt15ResourceManager8shutdownEv@Base 1.1~rc1
 _ZN2bt15ResourceManagerC1Ej@Base 1.1~rc1
 _ZN2bt15ResourceManagerC2Ej@Base 1.1~rc1
 _ZN2bt15ResourceManagerD0Ev@Base 1.1~rc1
 _ZN2bt15ResourceManagerD1Ev@Base 1.1~rc1
 _ZN2bt15ResourceManagerD2Ev@Base 1.1~rc1
 _ZN2bt15ServerInterface10encryptionE@Base 1.1~rc1
 _ZN2bt15ServerInterface11qt_metacallEN11QMetaObject4CallEiPPv@Base 1.1~rc1
 _ZN2bt15ServerInterface11qt_metacastEPKc@Base 1.1~rc1
 _ZN2bt15ServerInterface11utp_enabledE@Base 1.1~rc1
 _ZN2bt15ServerInterface12findInfoHashERKNS_8SHA1HashERS1_@Base 1.1~rc1
 _ZN2bt15ServerInterface12only_use_utpE@Base 1.1~rc1
 _ZN2bt15ServerInterface13bindAddressesEv@Base 1.1~rc1
 _ZN2bt15ServerInterface13newConnectionE14QSharedPointerIN3mse12StreamSocketEE@Base 1.1~rc1
 _ZN2bt15ServerInterface13peer_managersE@Base 1.1~rc1
 _ZN2bt15ServerInterface13setUtpEnabledEbb@Base 1.1~rc1
 _ZN2bt15ServerInterface14addPeerManagerEPNS_11PeerManagerE@Base 1.1~rc1
 _ZN2bt15ServerInterface15findPeerManagerERKNS_8SHA1HashE@Base 1.1~rc1
 _ZN2bt15ServerInterface16enableEncryptionEb@Base 1.1~rc1
 _ZN2bt15ServerInterface16staticMetaObjectE@Base 1.1~rc1
 _ZN2bt15ServerInterface17allow_unencryptedE@Base 1.1~rc1
 _ZN2bt15ServerInterface17disableEncryptionEv@Base 1.1~rc1
 _ZN2bt15ServerInterface17removePeerManagerEPNS_11PeerManagerE@Base 1.1~rc1
 _ZN2bt15ServerInterface26primary_transport_protocolE@Base 1.1~rc1
 _ZN2bt15ServerInterface27setPrimaryTransportProtocolENS_17TransportProtocolE@Base 1.1~rc1
 _ZN2bt15ServerInterface4portE@Base 1.1~rc1
 _ZN2bt15ServerInterfaceC1EP7QObject@Base 1.1~rc1
 _ZN2bt15ServerInterfaceC2EP7QObject@Base 1.1~rc1
 _ZN2bt15ServerInterfaceD0Ev@Base 1.1~rc1
 _ZN2bt15ServerInterfaceD1Ev@Base 1.1~rc1
 _ZN2bt15ServerInterfaceD2Ev@Base 1.1~rc1
 _ZN2bt15ShortenFileNameERK7QStringi@Base 1.1~rc1
 _ZN2bt15SynchronousWaitEj@Base 1.1~rc1
 _ZN2bt15UPnPMCastSocket10discoveredEPNS_10UPnPRouterE@Base 1.1~rc1
 _ZN2bt15UPnPMCastSocket10findDeviceERK7QString@Base 1.1~rc1
 _ZN2bt15UPnPMCastSocket10setVerboseEb@Base 1.1~rc1
 _ZN2bt15UPnPMCastSocket11loadRoutersERK7QString@Base 1.1~rc1
 _ZN2bt15UPnPMCastSocket11onReadyReadEv@Base 1.1~rc1
 _ZN2bt15UPnPMCastSocket11qt_metacallEN11QMetaObject4CallEiPPv@Base 1.1~rc1
 _ZN2bt15UPnPMCastSocket11qt_metacastEPKc@Base 1.1~rc1
 _ZN2bt15UPnPMCastSocket11saveRoutersERK7QString@Base 1.1~rc1
 _ZN2bt15UPnPMCastSocket16staticMetaObjectE@Base 1.1~rc1
 _ZN2bt15UPnPMCastSocket19onXmlFileDownloadedEPNS_10UPnPRouterEb@Base 1.1~rc1
 _ZN2bt15UPnPMCastSocket22UPnPMCastSocketPrivate10findDeviceERK4KUrl@Base 1.1~rc1
 _ZN2bt15UPnPMCastSocket22UPnPMCastSocketPrivate13parseResponseERK10QByteArray@Base 1.1~rc1
 _ZN2bt15UPnPMCastSocket22UPnPMCastSocketPrivate18joinUPnPMCastGroupEi@Base 1.1~rc1
 _ZN2bt15UPnPMCastSocket22UPnPMCastSocketPrivate19leaveUPnPMCastGroupEi@Base 1.1~rc1
 _ZN2bt15UPnPMCastSocket22UPnPMCastSocketPrivateC1Eb@Base 1.1~rc1
 _ZN2bt15UPnPMCastSocket22UPnPMCastSocketPrivateC2Eb@Base 1.1~rc1
 _ZN2bt15UPnPMCastSocket22UPnPMCastSocketPrivateD1Ev@Base 1.1~rc1
 _ZN2bt15UPnPMCastSocket22UPnPMCastSocketPrivateD2Ev@Base 1.1~rc1
 _ZN2bt15UPnPMCastSocket5errorEN15QAbstractSocket11SocketErrorE@Base 1.1~rc1
 _ZN2bt15UPnPMCastSocket8discoverEv@Base 1.1~rc1
 _ZN2bt15UPnPMCastSocketC1Eb@Base 1.1~rc1
 _ZN2bt15UPnPMCastSocketC2Eb@Base 1.1~rc1
 _ZN2bt15UPnPMCastSocketD0Ev@Base 1.1~rc1
 _ZN2bt15UPnPMCastSocketD1Ev@Base 1.1~rc1
 _ZN2bt15UPnPMCastSocketD2Ev@Base 1.1~rc1
 _ZN2bt16DecompressThread3runEv@Base 1.1~rc1
 _ZN2bt16DecompressThread6cancelEv@Base 1.1~rc1
 _ZN2bt16DecompressThreadC1ERK7QStringS3_@Base 1.1~rc1
 _ZN2bt16DecompressThreadC2ERK7QStringS3_@Base 1.1~rc1
 _ZN2bt16DecompressThreadD0Ev@Base 1.1~rc1
 _ZN2bt16DecompressThreadD1Ev@Base 1.1~rc1
 _ZN2bt16DecompressThreadD2Ev@Base 1.1~rc1
 _ZN2bt16DurationToStringEj@Base 1.1~rc1
 _ZN2bt16GetVersionStringEv@Base 1.1~rc1
 _ZN2bt16IsMultimediaFileERK7QString@Base 1.1~rc1
 _ZN2bt16LogSystemManager10registeredERK7QString@Base 1.1~rc1
 _ZN2bt16LogSystemManager10unregistedERK7QString@Base 1.1~rc1
 _ZN2bt16LogSystemManager11qt_metacallEN11QMetaObject4CallEiPPv@Base 1.1~rc1
 _ZN2bt16LogSystemManager11qt_metacastEPKc@Base 1.1~rc1
 _ZN2bt16LogSystemManager14registerSystemERK7QStringj@Base 1.1~rc1
 _ZN2bt16LogSystemManager16staticMetaObjectE@Base 1.1~rc1
 _ZN2bt16LogSystemManager16unregisterSystemERK7QString@Base 1.1~rc1
 _ZN2bt16LogSystemManager4selfE@Base 1.1~rc1
 _ZN2bt16LogSystemManager8systemIDERK7QString@Base 1.1~rc1
 _ZN2bt16LogSystemManagerC1Ev@Base 1.1~rc1
 _ZN2bt16LogSystemManagerC2Ev@Base 1.1~rc1
 _ZN2bt16LogSystemManagerD0Ev@Base 1.1~rc1
 _ZN2bt16LogSystemManagerD1Ev@Base 1.1~rc1
 _ZN2bt16LogSystemManagerD2Ev@Base 1.1~rc1
 _ZN2bt16MagnetDownloader10dhtStartedEv@Base 1.1~rc1
 _ZN2bt16MagnetDownloader10dhtStoppedEv@Base 1.1~rc1
 _ZN2bt16MagnetDownloader11qt_metacallEN11QMetaObject4CallEiPPv@Base 1.1~rc1
 _ZN2bt16MagnetDownloader11qt_metacastEPKc@Base 1.1~rc1
 _ZN2bt16MagnetDownloader13foundMetadataEPS0_RK10QByteArray@Base 1.1~rc1
 _ZN2bt16MagnetDownloader16staticMetaObjectE@Base 1.1~rc1
 _ZN2bt16MagnetDownloader19onTorrentDownloadedEP4KJob@Base 1.1~rc1
 _ZN2bt16MagnetDownloader20onMetadataDownloadedERK10QByteArray@Base 1.1~rc1
 _ZN2bt16MagnetDownloader4stopEv@Base 1.1~rc1
 _ZN2bt16MagnetDownloader5startEv@Base 1.1~rc1
 _ZN2bt16MagnetDownloader6updateEv@Base 1.1~rc1
 _ZN2bt16MagnetDownloader9onNewPeerEPNS_4PeerE@Base 1.1~rc1
 _ZN2bt16MagnetDownloaderC1ERKNS_10MagnetLinkEP7QObject@Base 1.1~rc1
 _ZN2bt16MagnetDownloaderC2ERKNS_10MagnetLinkEP7QObject@Base 1.1~rc1
 _ZN2bt16MagnetDownloaderD0Ev@Base 1.1~rc1
 _ZN2bt16MagnetDownloaderD1Ev@Base 1.1~rc1
 _ZN2bt16MagnetDownloaderD2Ev@Base 1.1~rc1
 _ZN2bt16MonitorInterfaceC1Ev@Base 1.1~rc1
 _ZN2bt16MonitorInterfaceC2Ev@Base 1.1~rc1
 _ZN2bt16MonitorInterfaceD0Ev@Base 1.1~rc1
 _ZN2bt16MonitorInterfaceD1Ev@Base 1.1~rc1
 _ZN2bt16MonitorInterfaceD2Ev@Base 1.1~rc1
 _ZN2bt16MultiDataChecker14closePastFilesEj@Base 1.1~rc1
 _ZN2bt16MultiDataChecker4openERKNS_7TorrentEj@Base 1.1~rc1
 _ZN2bt16MultiDataChecker5checkERK7QStringRKNS_7TorrentES3_RKNS_6BitSetE@Base 1.1~rc1
 _ZN2bt16MultiDataChecker9loadChunkEjjRKNS_7TorrentE@Base 1.1~rc1
 _ZN2bt16MultiDataCheckerC1Ev@Base 1.1~rc1
 _ZN2bt16MultiDataCheckerC2Ev@Base 1.1~rc1
 _ZN2bt16MultiDataCheckerD0Ev@Base 1.1~rc1
 _ZN2bt16MultiDataCheckerD1Ev@Base 1.1~rc1
 _ZN2bt16MultiDataCheckerD2Ev@Base 1.1~rc1
 _ZN2bt16NetworkInterfaceEv@Base 1.1~rc1
 _ZN2bt16PreallocationJob11qt_metacallEN11QMetaObject4CallEiPPv@Base 1.1~rc1
 _ZN2bt16PreallocationJob11qt_metacastEPKc@Base 1.1~rc1
 _ZN2bt16PreallocationJob16staticMetaObjectE@Base 1.1~rc1
 _ZN2bt16PreallocationJob4killEb@Base 1.1~rc1
 _ZN2bt16PreallocationJob5startEv@Base 1.1~rc1
 _ZN2bt16PreallocationJob8finishedEv@Base 1.1~rc1
 _ZN2bt16PreallocationJobC1EPNS_12ChunkManagerEPNS_14TorrentControlE@Base 1.1~rc1
 _ZN2bt16PreallocationJobC2EPNS_12ChunkManagerEPNS_14TorrentControlE@Base 1.1~rc1
 _ZN2bt16PreallocationJobD0Ev@Base 1.1~rc1
 _ZN2bt16PreallocationJobD1Ev@Base 1.1~rc1
 _ZN2bt16PreallocationJobD2Ev@Base 1.1~rc1
 _ZN2bt16RemoveLogMonitorEPNS_19LogMonitorInterfaceE@Base 1.1~rc1
 _ZN2bt16TorrentInterface11qt_metacallEN11QMetaObject4CallEiPPv@Base 1.1~rc1
 _ZN2bt16TorrentInterface11qt_metacastEPKc@Base 1.1~rc1
 _ZN2bt16TorrentInterface11updateQueueEv@Base 1.1~rc1
 _ZN2bt16TorrentInterface12diskSpaceLowEPS0_b@Base 1.1~rc1
 _ZN2bt16TorrentInterface13needDataCheckEPS0_@Base 1.1~rc1
 _ZN2bt16TorrentInterface13statusChangedEPS0_@Base 1.1~rc1
 _ZN2bt16TorrentInterface14stoppedByErrorEPS0_7QString@Base 1.1~rc1
 _ZN2bt16TorrentInterface14torrentStoppedEPS0_@Base 1.1~rc1
 _ZN2bt16TorrentInterface15chunkDownloadedEPS0_j@Base 1.1~rc1
 _ZN2bt16TorrentInterface15maxRatioChangedEPS0_@Base 1.1~rc1
 _ZN2bt16TorrentInterface15runningJobsDoneEPS0_@Base 1.1~rc1
 _ZN2bt16TorrentInterface16aboutToBeStartedEPS0_Rb@Base 1.1~rc1
 _ZN2bt16TorrentInterface16staticMetaObjectE@Base 1.1~rc1
 _ZN2bt16TorrentInterface18corruptedDataFoundEPS0_@Base 1.1~rc1
 _ZN2bt16TorrentInterface18seedingAutoStoppedEPS0_NS_14AutoStopReasonE@Base 1.1~rc1
 _ZN2bt16TorrentInterface21missingFilesMarkedDNDEPS0_@Base 1.1~rc1
 _ZN2bt16TorrentInterface8finishedEPS0_@Base 1.1~rc1
 _ZN2bt16TorrentInterfaceC1Ev@Base 1.1~rc1
 _ZN2bt16TorrentInterfaceC2Ev@Base 1.1~rc1
 _ZN2bt16TorrentInterfaceD0Ev@Base 1.1~rc1
 _ZN2bt16TorrentInterfaceD1Ev@Base 1.1~rc1
 _ZN2bt16TorrentInterfaceD2Ev@Base 1.1~rc1
 _ZN2bt16TrackerInterface5resetEv@Base 1.1~rc1
 _ZN2bt16TrackerInterfaceC1ERK4KUrl@Base 1.1~rc1
 _ZN2bt16TrackerInterfaceC2ERK4KUrl@Base 1.1~rc1
 _ZN2bt16TrackerInterfaceD0Ev@Base 1.1~rc1
 _ZN2bt16TrackerInterfaceD1Ev@Base 1.1~rc1
 _ZN2bt16TrackerInterfaceD2Ev@Base 1.1~rc1
 _ZN2bt16UDPTrackerSocket10sendScrapeEiPKhRKN3net7AddressE@Base 1.1~rc1
 _ZN2bt16UDPTrackerSocket11handleErrorERK10QByteArray@Base 1.1~rc1
 _ZN2bt16UDPTrackerSocket11qt_metacallEN11QMetaObject4CallEiPPv@Base 1.1~rc1
 _ZN2bt16UDPTrackerSocket11qt_metacastEPKc@Base 1.1~rc1
 _ZN2bt16UDPTrackerSocket11sendConnectEiRKN3net7AddressE@Base 1.1~rc1
 _ZN2bt16UDPTrackerSocket12handleScrapeERK10QByteArray@Base 1.1~rc1
 _ZN2bt16UDPTrackerSocket12sendAnnounceEiPKhRKN3net7AddressE@Base 1.1~rc1
 _ZN2bt16UDPTrackerSocket13handleConnectERK10QByteArray@Base 1.1~rc1
 _ZN2bt16UDPTrackerSocket14handleAnnounceERK10QByteArray@Base 1.1~rc1
 _ZN2bt16UDPTrackerSocket14scrapeReceivedEiRK10QByteArray@Base 1.1~rc1
 _ZN2bt16UDPTrackerSocket15connectReceivedEix@Base 1.1~rc1
 _ZN2bt16UDPTrackerSocket16announceReceivedEiRK10QByteArray@Base 1.1~rc1
 _ZN2bt16UDPTrackerSocket16newTransactionIDEv@Base 1.1~rc1
 _ZN2bt16UDPTrackerSocket16staticMetaObjectE@Base 1.1~rc1
 _ZN2bt16UDPTrackerSocket17cancelTransactionEi@Base 1.1~rc1
 _ZN2bt16UDPTrackerSocket4portE@Base 1.1~rc1
 _ZN2bt16UDPTrackerSocket5errorEiRK7QString@Base 1.1~rc1
 _ZN2bt16UDPTrackerSocket7getPortEv@Base 1.1~rc1
 _ZN2bt16UDPTrackerSocket7setPortEt@Base 1.1~rc1
 _ZN2bt16UDPTrackerSocketC1Ev@Base 1.1~rc1
 _ZN2bt16UDPTrackerSocketC2Ev@Base 1.1~rc1
 _ZN2bt16UDPTrackerSocketD0Ev@Base 1.1~rc1
 _ZN2bt16UDPTrackerSocketD1Ev@Base 1.1~rc1
 _ZN2bt16UDPTrackerSocketD2Ev@Base 1.1~rc1
 _ZN2bt16WebSeedInterface10setEnabledEb@Base 1.1~rc1
 _ZN2bt16WebSeedInterfaceC1ERK4KUrlb@Base 1.1~rc1
 _ZN2bt16WebSeedInterfaceC2ERK4KUrlb@Base 1.1~rc1
 _ZN2bt16WebSeedInterfaceD0Ev@Base 1.1~rc1
 _ZN2bt16WebSeedInterfaceD1Ev@Base 1.1~rc1
 _ZN2bt16WebSeedInterfaceD2Ev@Base 1.1~rc1
 _ZN2bt17DataCheckerThread3runEv@Base 1.1~rc1
 _ZN2bt17DataCheckerThreadC1EPNS_11DataCheckerERKNS_6BitSetERK7QStringRKNS_7TorrentES8_@Base 1.1~rc1
 _ZN2bt17DataCheckerThreadC2EPNS_11DataCheckerERKNS_6BitSetERK7QStringRKNS_7TorrentES8_@Base 1.1~rc1
 _ZN2bt17DataCheckerThreadD0Ev@Base 1.1~rc1
 _ZN2bt17DataCheckerThreadD1Ev@Base 1.1~rc1
 _ZN2bt17DataCheckerThreadD2Ev@Base 1.1~rc1
 _ZN2bt17DecompressFileJob11qt_metacallEN11QMetaObject4CallEiPPv@Base 1.1~rc1
 _ZN2bt17DecompressFileJob11qt_metacastEPKc@Base 1.1~rc1
 _ZN2bt17DecompressFileJob16staticMetaObjectE@Base 1.1~rc1
 _ZN2bt17DecompressFileJob24decompressThreadFinishedEv@Base 1.1~rc1
 _ZN2bt17DecompressFileJob4killEb@Base 1.1~rc1
 _ZN2bt17DecompressFileJob5startEv@Base 1.1~rc1
 _ZN2bt17DecompressFileJobC1ERK7QStringS3_@Base 1.1~rc1
 _ZN2bt17DecompressFileJobC2ERK7QStringS3_@Base 1.1~rc1
 _ZN2bt17DecompressFileJobD0Ev@Base 1.1~rc1
 _ZN2bt17DecompressFileJobD1Ev@Base 1.1~rc1
 _ZN2bt17DecompressFileJobD2Ev@Base 1.1~rc1
 _ZN2bt17InstallBusHandlerEv@Base 1.1~rc1
 _ZN2bt17SingleDataChecker5checkERK7QStringRKNS_7TorrentES3_RKNS_6BitSetE@Base 1.1~rc1
 _ZN2bt17SingleDataCheckerC1Ev@Base 1.1~rc1
 _ZN2bt17SingleDataCheckerC2Ev@Base 1.1~rc1
 _ZN2bt17SingleDataCheckerD0Ev@Base 1.1~rc1
 _ZN2bt17SingleDataCheckerD1Ev@Base 1.1~rc1
 _ZN2bt17SingleDataCheckerD2Ev@Base 1.1~rc1
 _ZN2bt17TorrentFileStream11qt_metacallEN11QMetaObject4CallEiPPv@Base 1.1~rc1
 _ZN2bt17TorrentFileStream11qt_metacastEPKc@Base 1.1~rc1
 _ZN2bt17TorrentFileStream15chunkDownloadedEPNS_16TorrentInterfaceEj@Base 1.1~rc1
 _ZN2bt17TorrentFileStream16staticMetaObjectE@Base 1.1~rc1
 _ZN2bt17TorrentFileStream23emitReadChannelFinishedEv@Base 1.1~rc1
 _ZN2bt17TorrentFileStream4openE6QFlagsIN9QIODevice12OpenModeFlagEE@Base 1.1~rc1
 _ZN2bt17TorrentFileStream4seekEx@Base 1.1~rc1
 _ZN2bt17TorrentFileStream5closeEv@Base 1.1~rc1
 _ZN2bt17TorrentFileStream5resetEv@Base 1.1~rc1
 _ZN2bt17TorrentFileStream7Private10firstChunkEv@Base 1.1~rc1
 _ZN2bt17TorrentFileStream7Private13lastChunkSizeEv@Base 1.1~rc1
 _ZN2bt17TorrentFileStream7Private16firstChunkOffsetEv@Base 1.1~rc1
 _ZN2bt17TorrentFileStream7Private16readCurrentChunkEPcx@Base 1.1~rc1
 _ZN2bt17TorrentFileStream7Private4seekEx@Base 1.1~rc1
 _ZN2bt17TorrentFileStream7Private5resetEv@Base 1.1~rc1
 _ZN2bt17TorrentFileStream7Private6updateEv@Base 1.1~rc1
 _ZN2bt17TorrentFileStream7Private8readDataEPcx@Base 1.1~rc1
 _ZN2bt17TorrentFileStream7Private9lastChunkEv@Base 1.1~rc1
 _ZN2bt17TorrentFileStream7PrivateC1EPNS_14TorrentControlEPNS_12ChunkManagerEbPS0_@Base 1.1~rc1
 _ZN2bt17TorrentFileStream7PrivateC1EPNS_14TorrentControlEjPNS_12ChunkManagerEbPS0_@Base 1.1~rc1
 _ZN2bt17TorrentFileStream7PrivateC2EPNS_14TorrentControlEPNS_12ChunkManagerEbPS0_@Base 1.1~rc1
 _ZN2bt17TorrentFileStream7PrivateC2EPNS_14TorrentControlEjPNS_12ChunkManagerEbPS0_@Base 1.1~rc1
 _ZN2bt17TorrentFileStream7PrivateD1Ev@Base 1.1~rc1
 _ZN2bt17TorrentFileStream7PrivateD2Ev@Base 1.1~rc1
 _ZN2bt17TorrentFileStream8readDataEPcx@Base 1.1~rc1
 _ZN2bt17TorrentFileStream9writeDataEPKcx@Base 1.1~rc1
 _ZN2bt17TorrentFileStreamC1EPNS_14TorrentControlEPNS_12ChunkManagerEbP7QObject@Base 1.1~rc1
 _ZN2bt17TorrentFileStreamC1EPNS_14TorrentControlEjPNS_12ChunkManagerEbP7QObject@Base 1.1~rc1
 _ZN2bt17TorrentFileStreamC2EPNS_14TorrentControlEPNS_12ChunkManagerEbP7QObject@Base 1.1~rc1
 _ZN2bt17TorrentFileStreamC2EPNS_14TorrentControlEjPNS_12ChunkManagerEbP7QObject@Base 1.1~rc1
 _ZN2bt17TorrentFileStreamD0Ev@Base 1.1~rc1
 _ZN2bt17TorrentFileStreamD1Ev@Base 1.1~rc1
 _ZN2bt17TorrentFileStreamD2Ev@Base 1.1~rc1
 _ZN2bt17UpdateCurrentTimeEv@Base 1.1~rc1
 _ZN2bt17global_time_stampE@Base 1.1~rc1
 _ZN2bt18BEncoderFileOutput5writeEPKcj@Base 1.1~rc1
 _ZN2bt18BEncoderFileOutputC1EPNS_4FileE@Base 1.1~rc1
 _ZN2bt18BEncoderFileOutputC2EPNS_4FileE@Base 1.1~rc1
 _ZN2bt18BEncoderFileOutputD0Ev@Base 1.1.2
 _ZN2bt18BEncoderFileOutputD1Ev@Base 1.1.2
 _ZN2bt18BEncoderFileOutputD2Ev@Base 1.1.2
 _ZN2bt18BlockListInterfaceC1Ev@Base 1.1~rc1
 _ZN2bt18BlockListInterfaceC2Ev@Base 1.1~rc1
 _ZN2bt18BlockListInterfaceD0Ev@Base 1.1~rc1
 _ZN2bt18BlockListInterfaceD1Ev@Base 1.1~rc1
 _ZN2bt18BlockListInterfaceD2Ev@Base 1.1~rc1
 _ZN2bt19BytesPerSecToStringEd@Base 1.1~rc1
 _ZN2bt19LogMonitorInterfaceC1Ev@Base 1.1~rc1
 _ZN2bt19LogMonitorInterfaceC2Ev@Base 1.1~rc1
 _ZN2bt19LogMonitorInterfaceD0Ev@Base 1.1~rc1
 _ZN2bt19LogMonitorInterfaceD1Ev@Base 1.1~rc1
 _ZN2bt19LogMonitorInterfaceD2Ev@Base 1.1~rc1
 _ZN2bt19SetNetworkInterfaceERK7QString@Base 1.1~rc1
 _ZN2bt20BEncoderBufferOutput5writeEPKcj@Base 1.1~rc1
 _ZN2bt20BEncoderBufferOutputC1ER10QByteArray@Base 1.1~rc1
 _ZN2bt20BEncoderBufferOutputC2ER10QByteArray@Base 1.1~rc1
 _ZN2bt20BEncoderBufferOutputD0Ev@Base 1.1.2
 _ZN2bt20BEncoderBufferOutputD1Ev@Base 1.1.2
 _ZN2bt20BEncoderBufferOutputD2Ev@Base 1.1.2
 _ZN2bt20TorrentFileInterface11qt_metacallEN11QMetaObject4CallEiPPv@Base 1.1~rc1
 _ZN2bt20TorrentFileInterface11qt_metacastEPKc@Base 1.1~rc1
 _ZN2bt20TorrentFileInterface15changeTextCodecEP10QTextCodec@Base 1.1~rc1
 _ZN2bt20TorrentFileInterface16setUnencodedPathE5QListI10QByteArrayE@Base 1.1~rc1
 _ZN2bt20TorrentFileInterface16staticMetaObjectE@Base 1.1~rc1
 _ZN2bt20TorrentFileInterfaceC1EjRK7QStringy@Base 1.1~rc1
 _ZN2bt20TorrentFileInterfaceC2EjRK7QStringy@Base 1.1~rc1
 _ZN2bt20TorrentFileInterfaceD0Ev@Base 1.1~rc1
 _ZN2bt20TorrentFileInterfaceD1Ev@Base 1.1~rc1
 _ZN2bt20TorrentFileInterfaceD2Ev@Base 1.1~rc1
 _ZN2bt21AuthenticationMonitor10handleDataEv@Base 1.1~rc1
 _ZN2bt21AuthenticationMonitor3addEPNS_16AuthenticateBaseE@Base 1.1~rc1
 _ZN2bt21AuthenticationMonitor4selfE@Base 1.1~rc1
 _ZN2bt21AuthenticationMonitor5clearEv@Base 1.1~rc1
 _ZN2bt21AuthenticationMonitor6removeEPNS_16AuthenticateBaseE@Base 1.1~rc1
 _ZN2bt21AuthenticationMonitor6updateEv@Base 1.1~rc1
 _ZN2bt21AuthenticationMonitor8shutdownEv@Base 1.1~rc1
 _ZN2bt21AuthenticationMonitorC1Ev@Base 1.1~rc1
 _ZN2bt21AuthenticationMonitorC2Ev@Base 1.1~rc1
 _ZN2bt21AuthenticationMonitorD0Ev@Base 1.1~rc1
 _ZN2bt21AuthenticationMonitorD1Ev@Base 1.1~rc1
 _ZN2bt21AuthenticationMonitorD2Ev@Base 1.1~rc1
 _ZN2bt21PeerProtocolExtension10sendPacketERK10QByteArray@Base 1.1~rc1
 _ZN2bt21PeerProtocolExtension6updateEv@Base 1.1~rc1
 _ZN2bt21PeerProtocolExtension8changeIDEj@Base 1.1~rc1
 _ZN2bt21PeerProtocolExtensionC1EjPNS_4PeerE@Base 1.1~rc1
 _ZN2bt21PeerProtocolExtensionC2EjPNS_4PeerE@Base 1.1~rc1
 _ZN2bt21PeerProtocolExtensionD0Ev@Base 1.1~rc1
 _ZN2bt21PeerProtocolExtensionD1Ev@Base 1.1~rc1
 _ZN2bt21PeerProtocolExtensionD2Ev@Base 1.1~rc1
 _ZN2bt21QueueManagerInterface10qm_enabledE@Base 1.1~rc1
 _ZN2bt21QueueManagerInterface22setQueueManagerEnabledEb@Base 1.1~rc1
 _ZN2bt21QueueManagerInterfaceC1Ev@Base 1.1~rc1
 _ZN2bt21QueueManagerInterfaceC2Ev@Base 1.1~rc1
 _ZN2bt21QueueManagerInterfaceD0Ev@Base 1.1~rc1
 _ZN2bt21QueueManagerInterfaceD1Ev@Base 1.1~rc1
 _ZN2bt21QueueManagerInterfaceD2Ev@Base 1.1~rc1
 _ZN2bt21UPnPDeviceDescription11setPropertyERK7QStringS3_@Base 1.1~rc1
 _ZN2bt21UPnPDeviceDescriptionD1Ev@Base 1.1.2
 _ZN2bt21UPnPDeviceDescriptionD2Ev@Base 1.1.2
 _ZN2bt22BEncoderIODeviceOutput5writeEPKcj@Base 1.1~rc1
 _ZN2bt22BEncoderIODeviceOutputC1EP9QIODevice@Base 1.1~rc1
 _ZN2bt22BEncoderIODeviceOutputC2EP9QIODevice@Base 1.1~rc1
 _ZN2bt22BEncoderIODeviceOutputD0Ev@Base 1.1.2
 _ZN2bt22BEncoderIODeviceOutputD1Ev@Base 1.1.2
 _ZN2bt22BEncoderIODeviceOutputD2Ev@Base 1.1.2
 _ZN2bt22ChunkSelectorInterface11selectRangeERjS1_j@Base 1.1~rc1
 _ZN2bt22ChunkSelectorInterface4initEPNS_12ChunkManagerEPNS_10DownloaderEPNS_11PeerManagerE@Base 1.1~rc1
 _ZN2bt22ChunkSelectorInterfaceC1Ev@Base 1.1~rc1
 _ZN2bt22ChunkSelectorInterfaceC2Ev@Base 1.1~rc1
 _ZN2bt22ChunkSelectorInterfaceD0Ev@Base 1.1~rc1
 _ZN2bt22ChunkSelectorInterfaceD1Ev@Base 1.1~rc1
 _ZN2bt22ChunkSelectorInterfaceD2Ev@Base 1.1~rc1
 _ZN2bt22StreamingChunkSelector10reincludedEjj@Base 1.1~rc1
 _ZN2bt22StreamingChunkSelector11dataCheckedERKNS_6BitSetE@Base 1.1~rc1
 _ZN2bt22StreamingChunkSelector11selectRangeERjS1_j@Base 1.1~rc1
 _ZN2bt22StreamingChunkSelector11updateRangeEv@Base 1.1~rc1
 _ZN2bt22StreamingChunkSelector18setSequentialRangeEjj@Base 1.1~rc1
 _ZN2bt22StreamingChunkSelector4initEPNS_12ChunkManagerEPNS_10DownloaderEPNS_11PeerManagerE@Base 1.1~rc1
 _ZN2bt22StreamingChunkSelector6selectEPNS_15PieceDownloaderERj@Base 1.1~rc1
 _ZN2bt22StreamingChunkSelector8reinsertEj@Base 1.1~rc1
 _ZN2bt22StreamingChunkSelector9initRangeEv@Base 1.1~rc1
 _ZN2bt22StreamingChunkSelector9setCursorEj@Base 1.1~rc1
 _ZN2bt22StreamingChunkSelectorC1Ev@Base 1.1~rc1
 _ZN2bt22StreamingChunkSelectorC2Ev@Base 1.1~rc1
 _ZN2bt22StreamingChunkSelectorD0Ev@Base 1.1~rc1
 _ZN2bt22StreamingChunkSelectorD1Ev@Base 1.1~rc1
 _ZN2bt22StreamingChunkSelectorD2Ev@Base 1.1~rc1
 _ZN2bt25NetworkInterfaceIPAddressERK7QString@Base 1.1~rc1
 _ZN2bt27NetworkInterfaceIPAddressesERK7QString@Base 1.1~rc1
 _ZN2bt3Job11qt_metacallEN11QMetaObject4CallEiPPv@Base 1.1~rc1
 _ZN2bt3Job11qt_metacastEPKc@Base 1.1~rc1
 _ZN2bt3Job13setJobTrackerEP20KJobTrackerInterface@Base 1.1~rc1
 _ZN2bt3Job16staticMetaObjectE@Base 1.1~rc1
 _ZN2bt3Job19registerWithTrackerEv@Base 1.1~rc1
 _ZN2bt3Job4killEb@Base 1.1~rc1
 _ZN2bt3Job5startEv@Base 1.1~rc1
 _ZN2bt3Job7trackerE@Base 1.1~rc1
 _ZN2bt3JobC1EbPNS_14TorrentControlE@Base 1.1~rc1
 _ZN2bt3JobC2EbPNS_14TorrentControlE@Base 1.1~rc1
 _ZN2bt3JobD0Ev@Base 1.1~rc1
 _ZN2bt3JobD1Ev@Base 1.1~rc1
 _ZN2bt3JobD2Ev@Base 1.1~rc1
 _ZN2bt3Log10addMonitorEPNS_19LogMonitorInterfaceE@Base 1.1~rc1
 _ZN2bt3Log13logRotateDoneEv@Base 1.1~rc1
 _ZN2bt3Log13removeMonitorEPNS_19LogMonitorInterfaceE@Base 1.1~rc1
 _ZN2bt3Log13setOutputFileERK7QStringbb@Base 1.1~rc1
 _ZN2bt3Log18setOutputToConsoleEb@Base 1.1~rc1
 _ZN2bt3Log4lockEv@Base 1.1~rc1
 _ZN2bt3Log9setFilterEj@Base 1.1~rc1
 _ZN2bt3LogC1Ev@Base 1.1~rc1
 _ZN2bt3LogC2Ev@Base 1.1~rc1
 _ZN2bt3LogD0Ev@Base 1.1~rc1
 _ZN2bt3LogD1Ev@Base 1.1~rc1
 _ZN2bt3LogD2Ev@Base 1.1~rc1
 _ZN2bt3LoglsEPKc@Base 1.1~rc1
 _ZN2bt3LoglsERK4KUrl@Base 1.1~rc1
 _ZN2bt3LoglsERK7QString@Base 1.1~rc1
 _ZN2bt3LoglsEx@Base 1.1~rc1
 _ZN2bt3LoglsEy@Base 1.1~rc1
 _ZN2bt3NowEv@Base 1.1~rc1
 _ZN2bt3OutEj@Base 1.1~rc1
 _ZN2bt4File4openERK7QStringS3_@Base 1.1~rc1
 _ZN2bt4File4readEPvj@Base 1.1~rc1
 _ZN2bt4File4seekENS0_7SeekPosEx@Base 1.1~rc1
 _ZN2bt4File5closeEv@Base 1.1~rc1
 _ZN2bt4File5flushEv@Base 1.1~rc1
 _ZN2bt4File5writeEPKvj@Base 1.1~rc1
 _ZN2bt4FileC1Ev@Base 1.1~rc1
 _ZN2bt4FileC2Ev@Base 1.1~rc1
 _ZN2bt4FileD0Ev@Base 1.1~rc1
 _ZN2bt4FileD1Ev@Base 1.1~rc1
 _ZN2bt4FileD2Ev@Base 1.1~rc1
 _ZN2bt4MoveERK7QStringS2_bb@Base 1.1~rc1
 _ZN2bt4Peer11packetReadyEPKhj@Base 1.1~rc1
 _ZN2bt4Peer11qt_metacallEN11QMetaObject4CallEiPPv@Base 1.1~rc1
 _ZN2bt4Peer11qt_metacastEPKc@Base 1.1~rc1
 _ZN2bt4Peer11setACAScoreEd@Base 1.1~rc1
 _ZN2bt4Peer11setGroupIDsEjj@Base 1.1~rc1
 _ZN2bt4Peer13setPexEnabledEb@Base 1.1~rc1
 _ZN2bt4Peer14emitPortPacketEv@Base 1.1~rc1
 _ZN2bt4Peer15closeConnectionEv@Base 1.1~rc1
 _ZN2bt4Peer16resolve_hostnameE@Base 1.1~rc1
 _ZN2bt4Peer16staticMetaObjectE@Base 1.1~rc1
 _ZN2bt4Peer18metadataDownloadedERK10QByteArray@Base 1.1~rc1
 _ZN2bt4Peer19setResolveHostnamesEb@Base 1.1~rc1
 _ZN2bt4Peer20handleExtendedPacketEPKhj@Base 1.1~rc1
 _ZN2bt4Peer20sendExtProtHandshakeEtj@Base 1.1~rc1
 _ZN2bt4Peer22emitMetadataDownloadedERK10QByteArray@Base 1.1~rc1
 _ZN2bt4Peer23handleExtendedHandshakeEPKhj@Base 1.1~rc1
 _ZN2bt4Peer4killEv@Base 1.1~rc1
 _ZN2bt4Peer5chokeEv@Base 1.1~rc1
 _ZN2bt4Peer5pauseEv@Base 1.1~rc1
 _ZN2bt4Peer6updateEv@Base 1.1~rc1
 _ZN2bt4Peer7emitPexERK10QByteArray@Base 1.1~rc1
 _ZN2bt4Peer7unpauseEv@Base 1.1~rc1
 _ZN2bt4Peer8readDataEPhj@Base 1.1~rc1
 _ZN2bt4Peer8resolvedERK7QString@Base 1.1~rc1
 _ZN2bt4Peer8sendDataEPKhj@Base 1.1~rc1
 _ZN2bt4PeerC1E14QSharedPointerIN3mse12StreamSocketEERKNS_6PeerIDEjjjbPNS_11PeerManagerE@Base 1.1~rc1
 _ZN2bt4PeerC2E14QSharedPointerIN3mse12StreamSocketEERKNS_6PeerIDEjjjbPNS_11PeerManagerE@Base 1.1~rc1
 _ZN2bt4PeerD0Ev@Base 1.1~rc1
 _ZN2bt4PeerD1Ev@Base 1.1~rc1
 _ZN2bt4PeerD2Ev@Base 1.1~rc1
 _ZN2bt4Pipe4readEPhi@Base 1.1~rc1
 _ZN2bt4Pipe5writeEPKhi@Base 1.1~rc1
 _ZN2bt4PipeC1Ev@Base 1.1~rc1
 _ZN2bt4PipeC2Ev@Base 1.1~rc1
 _ZN2bt4PipeD0Ev@Base 1.1~rc1
 _ZN2bt4PipeD1Ev@Base 1.1~rc1
 _ZN2bt4PipeD2Ev@Base 1.1~rc1
 _ZN2bt4endlERNS_3LogE@Base 1.1~rc1
 _ZN2bt5BNodeC1ENS0_4TypeEj@Base 1.1~rc1
 _ZN2bt5BNodeC2ENS0_4TypeEj@Base 1.1~rc1
 _ZN2bt5BNodeD0Ev@Base 1.1~rc1
 _ZN2bt5BNodeD1Ev@Base 1.1~rc1
 _ZN2bt5BNodeD2Ev@Base 1.1~rc1
 _ZN2bt5Cache11clearPiecesEPNS_5ChunkE@Base 1.1~rc1
 _ZN2bt5Cache11insertPieceEPNS_5ChunkE28QExplicitlySharedDataPointerINS_9PieceDataEE@Base 1.1~rc1
 _ZN2bt5Cache12changeTmpDirERK7QString@Base 1.1~rc1
 _ZN2bt5Cache13moveDataFilesERK4QMapIPNS_20TorrentFileInterfaceE7QStringE@Base 1.1~rc1
 _ZN2bt5Cache15clearPieceCacheEv@Base 1.1~rc1
 _ZN2bt5Cache16checkMemoryUsageEv@Base 1.1~rc1
 _ZN2bt5Cache17cleanupPieceCacheEv@Base 1.1~rc1
 _ZN2bt5Cache17mappedModeAllowedEv@Base 1.1~rc1
 _ZN2bt5Cache17preallocate_filesE@Base 1.1~rc1
 _ZN2bt5Cache17preallocate_fullyE@Base 1.1~rc1
 _ZN2bt5Cache21moveDataFilesFinishedERK4QMapIPNS_20TorrentFileInterfaceE7QStringEPNS_3JobE@Base 1.1~rc1
 _ZN2bt5Cache9findPieceEPNS_5ChunkEjjb@Base 1.1~rc1
 _ZN2bt5CacheC1ERNS_7TorrentERK7QStringS5_@Base 1.1~rc1
 _ZN2bt5CacheC2ERNS_7TorrentERK7QStringS5_@Base 1.1~rc1
 _ZN2bt5CacheD0Ev@Base 1.1~rc1
 _ZN2bt5CacheD1Ev@Base 1.1~rc1
 _ZN2bt5CacheD2Ev@Base 1.1~rc1
 _ZN2bt5Chunk8getPieceEjjb@Base 1.1~rc1
 _ZN2bt5Chunk9checkHashERKNS_8SHA1HashE@Base 1.1~rc1
 _ZN2bt5Chunk9readPieceEjjPh@Base 1.1~rc1
 _ZN2bt5Chunk9savePieceE28QExplicitlySharedDataPointerINS_9PieceDataEE@Base 1.1~rc1
 _ZN2bt5ChunkC1EjjPNS_5CacheE@Base 1.1~rc1
 _ZN2bt5ChunkC2EjjPNS_5CacheE@Base 1.1~rc1
 _ZN2bt5ChunkD1Ev@Base 1.1~rc1
 _ZN2bt5ChunkD2Ev@Base 1.1~rc1
 _ZN2bt5ErrorC1ERK7QString@Base 1.1~rc1
 _ZN2bt5ErrorC2ERK7QString@Base 1.1~rc1
 _ZN2bt5ErrorD0Ev@Base 1.1~rc1
 _ZN2bt5ErrorD1Ev@Base 1.1~rc1
 _ZN2bt5ErrorD2Ev@Base 1.1~rc1
 _ZN2bt5Timer6updateEv@Base 1.1~rc1
 _ZN2bt5TimerC1ERKS0_@Base 1.1~rc1
 _ZN2bt5TimerC1Ev@Base 1.1~rc1
 _ZN2bt5TimerC2ERKS0_@Base 1.1~rc1
 _ZN2bt5TimerC2Ev@Base 1.1~rc1
 _ZN2bt5TimerD0Ev@Base 1.1~rc1
 _ZN2bt5TimerD1Ev@Base 1.1~rc1
 _ZN2bt5TimerD2Ev@Base 1.1~rc1
 _ZN2bt5TimeraSERKS0_@Base 1.1~rc1
 _ZN2bt5TouchERK7QStringb@Base 1.1~rc1
 _ZN2bt5UTPex11encodeFlagsERNS_8BEncoderERKSt3mapIjhSt4lessIjESaISt4pairIKjhEEE@Base 1.1~rc1
 _ZN2bt5UTPex11pex_enabledE@Base 1.1~rc1
 _ZN2bt5UTPex12handlePacketEPKhj@Base 1.1~rc1
 _ZN2bt5UTPex5visitEPKNS_4PeerE@Base 1.1~rc1
 _ZN2bt5UTPex6encodeERNS_8BEncoderERKSt3mapIjN3net7AddressESt4lessIjESaISt4pairIKjS5_EEE@Base 1.1~rc1
 _ZN2bt5UTPex6updateEv@Base 1.1~rc1
 _ZN2bt5UTPexC1EPNS_4PeerEj@Base 1.1~rc1
 _ZN2bt5UTPexC2EPNS_4PeerEj@Base 1.1~rc1
 _ZN2bt5UTPexD0Ev@Base 1.1~rc1
 _ZN2bt5UTPexD1Ev@Base 1.1~rc1
 _ZN2bt5UTPexD2Ev@Base 1.1~rc1
 _ZN2bt5ValueC1ERK10QByteArray@Base 1.1~rc1
 _ZN2bt5ValueC1ERKS0_@Base 1.1~rc1
 _ZN2bt5ValueC1Ei@Base 1.1~rc1
 _ZN2bt5ValueC1Ev@Base 1.1~rc1
 _ZN2bt5ValueC1Ex@Base 1.1~rc1
 _ZN2bt5ValueC2ERK10QByteArray@Base 1.1~rc1
 _ZN2bt5ValueC2ERKS0_@Base 1.1~rc1
 _ZN2bt5ValueC2Ei@Base 1.1~rc1
 _ZN2bt5ValueC2Ev@Base 1.1~rc1
 _ZN2bt5ValueC2Ex@Base 1.1~rc1
 _ZN2bt5ValueD1Ev@Base 1.1~rc1
 _ZN2bt5ValueD2Ev@Base 1.1~rc1
 _ZN2bt5ValueaSERK10QByteArray@Base 1.1~rc1
 _ZN2bt5ValueaSERKS0_@Base 1.1~rc1
 _ZN2bt5ValueaSEi@Base 1.1~rc1
 _ZN2bt5ValueaSEx@Base 1.1~rc1
 _ZN2bt6BitSet14includesBitSetERKS0_@Base 1.1~rc1
 _ZN2bt6BitSet15updateNumOnBitsEv@Base 1.1~rc1
 _ZN2bt6BitSet4nullE@Base 1.1~rc1
 _ZN2bt6BitSet5clearEv@Base 1.1~rc1
 _ZN2bt6BitSet6invertEv@Base 1.1~rc1
 _ZN2bt6BitSet6setAllEb@Base 1.1~rc1
 _ZN2bt6BitSet8orBitSetERKS0_@Base 1.1~rc1
 _ZN2bt6BitSet9andBitSetERKS0_@Base 1.1~rc1
 _ZN2bt6BitSetC1EPKhj@Base 1.1~rc1
 _ZN2bt6BitSetC1ERKS0_@Base 1.1~rc1
 _ZN2bt6BitSetC1Ej@Base 1.1~rc1
 _ZN2bt6BitSetC2EPKhj@Base 1.1~rc1
 _ZN2bt6BitSetC2ERKS0_@Base 1.1~rc1
 _ZN2bt6BitSetC2Ej@Base 1.1~rc1
 _ZN2bt6BitSetD0Ev@Base 1.1~rc1
 _ZN2bt6BitSetD1Ev@Base 1.1~rc1
 _ZN2bt6BitSetD2Ev@Base 1.1~rc1
 _ZN2bt6BitSetaSERKS0_@Base 1.1~rc1
 _ZN2bt6BitSeteqERKS0_@Base 1.1~rc1
 _ZN2bt6BitSetmIERKS0_@Base 1.1~rc1
 _ZN2bt6BitSetmiERKS0_@Base 1.1~rc1
 _ZN2bt6Choker16num_upload_slotsE@Base 1.1~rc1
 _ZN2bt6Choker6updateEbRKNS_12TorrentStatsE@Base 1.1~rc1
 _ZN2bt6ChokerC1ERNS_11PeerManagerERNS_12ChunkManagerE@Base 1.1~rc1
 _ZN2bt6ChokerC2ERNS_11PeerManagerERNS_12ChunkManagerE@Base 1.1~rc1
 _ZN2bt6ChokerD0Ev@Base 1.1~rc1
 _ZN2bt6ChokerD1Ev@Base 1.1~rc1
 _ZN2bt6ChokerD2Ev@Base 1.1~rc1
 _ZN2bt6DeleteERK7QStringb@Base 1.1~rc1
 _ZN2bt6ExistsERK7QString@Base 1.1~rc1
 _ZN2bt6PeerIDC1EPKc@Base 1.1~rc1
 _ZN2bt6PeerIDC1ERKS0_@Base 1.1~rc1
 _ZN2bt6PeerIDC1Ev@Base 1.1~rc1
 _ZN2bt6PeerIDC2EPKc@Base 1.1~rc1
 _ZN2bt6PeerIDC2ERKS0_@Base 1.1~rc1
 _ZN2bt6PeerIDC2Ev@Base 1.1~rc1
 _ZN2bt6PeerIDD0Ev@Base 1.1~rc1
 _ZN2bt6PeerIDD1Ev@Base 1.1~rc1
 _ZN2bt6PeerIDD2Ev@Base 1.1~rc1
 _ZN2bt6PeerIDaSERKS0_@Base 1.1~rc1
 _ZN2bt6Server10changePortEt@Base 1.1~rc1
 _ZN2bt6Server11qt_metacallEN11QMetaObject4CallEiPPv@Base 1.1~rc1
 _ZN2bt6Server11qt_metacastEPKc@Base 1.1~rc1
 _ZN2bt6Server16staticMetaObjectE@Base 1.1~rc1
 _ZN2bt6ServerC1Ev@Base 1.1~rc1
 _ZN2bt6ServerC2Ev@Base 1.1~rc1
 _ZN2bt6ServerD0Ev@Base 1.1~rc1
 _ZN2bt6ServerD1Ev@Base 1.1~rc1
 _ZN2bt6ServerD2Ev@Base 1.1~rc1
 _ZN2bt7CopyDirERK7QStringS2_b@Base 1.1~rc1
 _ZN2bt7Globals13initTCPServerEt@Base 1.1~rc1
 _ZN2bt7Globals13initUTPServerEt@Base 1.1~rc1
 _ZN2bt7Globals17shutdownTCPServerEv@Base 1.1~rc1
 _ZN2bt7Globals17shutdownUTPServerEv@Base 1.1~rc1
 _ZN2bt7Globals4instE@Base 1.1~rc1
 _ZN2bt7Globals7cleanupEv@Base 1.1~rc1
 _ZN2bt7Globals8instanceEv@Base 1.1~rc1
 _ZN2bt7GlobalsC1Ev@Base 1.1~rc1
 _ZN2bt7GlobalsC2Ev@Base 1.1~rc1
 _ZN2bt7GlobalsD0Ev@Base 1.1~rc1
 _ZN2bt7GlobalsD1Ev@Base 1.1~rc1
 _ZN2bt7GlobalsD2Ev@Base 1.1~rc1
 _ZN2bt7InitLogERK7QStringbbb@Base 1.1~rc1
 _ZN2bt7MakeDirERK7QStringb@Base 1.1~rc1
 _ZN2bt7SymLinkERK7QStringS2_b@Base 1.1~rc1
 _ZN2bt7Torrent10verifyHashERKNS_8SHA1HashEj@Base 1.1~rc1
 _ZN2bt7Torrent12loadWebSeedsEPNS_9BListNodeE@Base 1.1~rc1
 _ZN2bt7Torrent14debugPrintInfoEv@Base 1.1~rc1
 _ZN2bt7Torrent14loadTrackerURLERK7QString@Base 1.1~rc1
 _ZN2bt7Torrent15changeTextCodecEP10QTextCodec@Base 1.1~rc1
 _ZN2bt7Torrent16loadAnnounceListEPNS_5BNodeE@Base 1.1~rc1
 _ZN2bt7Torrent18filePreviewChangedEPNS_11TorrentFileEb@Base 1.1~rc1
 _ZN2bt7Torrent20updateFilePercentageERNS_12ChunkManagerE@Base 1.1~rc1
 _ZN2bt7Torrent20updateFilePercentageEjRNS_12ChunkManagerE@Base 1.1~rc1
 _ZN2bt7Torrent21filePercentageChangedEPNS_11TorrentFileEf@Base 1.1~rc1
 _ZN2bt7Torrent23downloadPriorityChangedEPNS_11TorrentFileENS_8PriorityES3_@Base 1.1~rc1
 _ZN2bt7Torrent30checkPathForDirectoryTraversalERK7QString@Base 1.1~rc1
 _ZN2bt7Torrent4loadERK10QByteArrayb@Base 1.1~rc1
 _ZN2bt7Torrent4loadERK7QStringb@Base 1.1~rc1
 _ZN2bt7Torrent7getFileEj@Base 1.1~rc1
 _ZN2bt7Torrent8loadHashEPNS_9BDictNodeE@Base 1.1~rc1
 _ZN2bt7Torrent8loadInfoEPNS_9BDictNodeE@Base 1.1~rc1
 _ZN2bt7Torrent9loadFilesEPNS_9BListNodeE@Base 1.1~rc1
 _ZN2bt7Torrent9loadNodesEPNS_9BListNodeE@Base 1.1~rc1
 _ZN2bt7TorrentC1ERKNS_8SHA1HashE@Base 1.1~rc1
 _ZN2bt7TorrentC1Ev@Base 1.1~rc1
 _ZN2bt7TorrentC2ERKNS_8SHA1HashE@Base 1.1~rc1
 _ZN2bt7TorrentC2Ev@Base 1.1~rc1
 _ZN2bt7TorrentD0Ev@Base 1.1~rc1
 _ZN2bt7TorrentD1Ev@Base 1.1~rc1
 _ZN2bt7TorrentD2Ev@Base 1.1~rc1
 _ZN2bt7Tracker10scrapeDoneEv@Base 1.1~rc1
 _ZN2bt7Tracker11getCustomIPEv@Base 1.1~rc1
 _ZN2bt7Tracker11qt_metacallEN11QMetaObject4CallEiPPv@Base 1.1~rc1
 _ZN2bt7Tracker11qt_metacastEPKc@Base 1.1~rc1
 _ZN2bt7Tracker11setCustomIPERK7QString@Base 1.1~rc1
 _ZN2bt7Tracker11timedDeleteEi@Base 1.1~rc1
 _ZN2bt7Tracker13handleFailureEv@Base 1.1~rc1
 _ZN2bt7Tracker13requestFailedERK7QString@Base 1.1~rc1
 _ZN2bt7Tracker14requestPendingEv@Base 1.1~rc1
 _ZN2bt7Tracker16staticMetaObjectE@Base 1.1~rc1
 _ZN2bt7Tracker17resetTrackerStatsEv@Base 1.1~rc1
 _ZN2bt7Tracker6failedERK7QString@Base 1.1~rc1
 _ZN2bt7Tracker8stopDoneEv@Base 1.1~rc1
 _ZN2bt7Tracker9requestOKEv@Base 1.1~rc1
 _ZN2bt7TrackerC1ERK4KUrlPNS_17TrackerDataSourceERKNS_6PeerIDEi@Base 1.1~rc1
 _ZN2bt7TrackerC2ERK4KUrlPNS_17TrackerDataSourceERKNS_6PeerIDEi@Base 1.1~rc1
 _ZN2bt7TrackerD0Ev@Base 1.1~rc1
 _ZN2bt7TrackerD1Ev@Base 1.1~rc1
 _ZN2bt7TrackerD2Ev@Base 1.1~rc1
 _ZN2bt7WaitJob11qt_metacallEN11QMetaObject4CallEiPPv@Base 1.1~rc1
 _ZN2bt7WaitJob11qt_metacastEPKc@Base 1.1~rc1
 _ZN2bt7WaitJob16addExitOperationEPN3KIO3JobE@Base 1.1~rc1
 _ZN2bt7WaitJob16addExitOperationEPNS_13ExitOperationE@Base 1.1~rc1
 _ZN2bt7WaitJob16staticMetaObjectE@Base 1.1~rc1
 _ZN2bt7WaitJob17operationFinishedEPNS_13ExitOperationE@Base 1.1~rc1
 _ZN2bt7WaitJob4killEb@Base 1.1~rc1
 _ZN2bt7WaitJob7executeEPS0_@Base 1.1~rc1
 _ZN2bt7WaitJob9timerDoneEv@Base 1.1~rc1
 _ZN2bt7WaitJobC1Ej@Base 1.1~rc1
 _ZN2bt7WaitJobC2Ej@Base 1.1~rc1
 _ZN2bt7WaitJobD0Ev@Base 1.1~rc1
 _ZN2bt7WaitJobD1Ev@Base 1.1~rc1
 _ZN2bt7WaitJobD2Ev@Base 1.1~rc1
 _ZN2bt7WarningC1ERK7QString@Base 1.1~rc1
 _ZN2bt7WarningC2ERK7QString@Base 1.1~rc1
 _ZN2bt7WarningD0Ev@Base 1.1~rc1
 _ZN2bt7WarningD1Ev@Base 1.1~rc1
 _ZN2bt7WarningD2Ev@Base 1.1~rc1
 _ZN2bt7WebSeed10chunkReadyEPNS_5ChunkE@Base 1.1~rc1
 _ZN2bt7WebSeed10handleDataERK10QByteArray@Base 1.1~rc1
 _ZN2bt7WebSeed10onExcludedEjj@Base 1.1~rc1
 _ZN2bt7WebSeed10proxy_hostE@Base 1.1~rc1
 _ZN2bt7WebSeed10proxy_portE@Base 1.1~rc1
 _ZN2bt7WebSeed10redirectedERK4KUrl@Base 1.1~rc1
 _ZN2bt7WebSeed10retryLaterEv@Base 1.1~rc1
 _ZN2bt7WebSeed10setEnabledEb@Base 1.1~rc1
 _ZN2bt7WebSeed11qt_metacallEN11QMetaObject4CallEiPPv@Base 1.1~rc1
 _ZN2bt7WebSeed11qt_metacastEPKc@Base 1.1~rc1
 _ZN2bt7WebSeed11setGroupIDsEjj@Base 1.1~rc1
 _ZN2bt7WebSeed12chunkStartedEj@Base 1.1~rc1
 _ZN2bt7WebSeed12chunkStoppedEv@Base 1.1~rc1
 _ZN2bt7WebSeed13fillRangeListEj@Base 1.1~rc1
 _ZN2bt7WebSeed13proxy_enabledE@Base 1.1~rc1
 _ZN2bt7WebSeed15chunkDownloadedEj@Base 1.1~rc1
 _ZN2bt7WebSeed15connectToServerEv@Base 1.1~rc1
 _ZN2bt7WebSeed15setProxyEnabledEb@Base 1.1~rc1
 _ZN2bt7WebSeed16continueCurChunkEv@Base 1.1~rc1
 _ZN2bt7WebSeed16staticMetaObjectE@Base 1.1~rc1
 _ZN2bt7WebSeed20chunkDownloadStartedEPNS_20WebSeedChunkDownloadEj@Base 1.1~rc1
 _ZN2bt7WebSeed21chunkDownloadFinishedEPNS_20WebSeedChunkDownloadEj@Base 1.1~rc1
 _ZN2bt7WebSeed5resetEv@Base 1.1~rc1
 _ZN2bt7WebSeed6cancelEv@Base 1.1~rc1
 _ZN2bt7WebSeed6updateEv@Base 1.1~rc1
 _ZN2bt7WebSeed7disableERK7QString@Base 1.1~rc1
 _ZN2bt7WebSeed8downloadEjj@Base 1.1~rc1
 _ZN2bt7WebSeed8finishedEv@Base 1.1~rc1
 _ZN2bt7WebSeed8readDataEv@Base 1.1~rc1
 _ZN2bt7WebSeed8setProxyERK7QStringt@Base 1.1~rc1
 _ZN2bt7WebSeedC1ERK4KUrlbRKNS_7TorrentERNS_12ChunkManagerE@Base 1.1~rc1
 _ZN2bt7WebSeedC2ERK4KUrlbRKNS_7TorrentERNS_12ChunkManagerE@Base 1.1~rc1
 _ZN2bt7WebSeedD0Ev@Base 1.1~rc1
 _ZN2bt7WebSeedD1Ev@Base 1.1~rc1
 _ZN2bt7WebSeedD2Ev@Base 1.1~rc1
 _ZN2bt8BDecoder10decodeDictEv@Base 1.1~rc1
 _ZN2bt8BDecoder10decodeListEv@Base 1.1~rc1
 _ZN2bt8BDecoder11parseStringEv@Base 1.1~rc1
 _ZN2bt8BDecoder6decodeEv@Base 1.1~rc1
 _ZN2bt8BDecoder8debugMsgERK7QString@Base 1.1~rc1
 _ZN2bt8BDecoder8parseIntEv@Base 1.1~rc1
 _ZN2bt8BDecoder9parseDictEv@Base 1.1~rc1
 _ZN2bt8BDecoder9parseListEv@Base 1.1~rc1
 _ZN2bt8BDecoderC1ERK10QByteArraybj@Base 1.1~rc1
 _ZN2bt8BDecoderC2ERK10QByteArraybj@Base 1.1~rc1
 _ZN2bt8BDecoderD0Ev@Base 1.1~rc1
 _ZN2bt8BDecoderD1Ev@Base 1.1~rc1
 _ZN2bt8BDecoderD2Ev@Base 1.1~rc1
 _ZN2bt8BEncoder3endEv@Base 1.1~rc1
 _ZN2bt8BEncoder5writeEPKc@Base 1.1~rc1
 _ZN2bt8BEncoder5writeEPKhj@Base 1.1~rc1
 _ZN2bt8BEncoder5writeERK10QByteArray@Base 1.1~rc1
 _ZN2bt8BEncoder5writeERK7QString@Base 1.1~rc1
 _ZN2bt8BEncoder5writeEb@Base 1.1~rc1
 _ZN2bt8BEncoder5writeEf@Base 1.1~rc1
 _ZN2bt8BEncoder5writeEj@Base 1.1~rc1
 _ZN2bt8BEncoder5writeEy@Base 1.1~rc1
 _ZN2bt8BEncoder9beginDictEv@Base 1.1~rc1
 _ZN2bt8BEncoder9beginListEv@Base 1.1~rc1
 _ZN2bt8BEncoderC1EP9QIODevice@Base 1.1~rc1
 _ZN2bt8BEncoderC1EPNS_14BEncoderOutputE@Base 1.1~rc1
 _ZN2bt8BEncoderC1EPNS_4FileE@Base 1.1~rc1
 _ZN2bt8BEncoderC2EP9QIODevice@Base 1.1~rc1
 _ZN2bt8BEncoderC2EPNS_14BEncoderOutputE@Base 1.1~rc1
 _ZN2bt8BEncoderC2EPNS_4FileE@Base 1.1~rc1
 _ZN2bt8BEncoderD0Ev@Base 1.1~rc1
 _ZN2bt8BEncoderD1Ev@Base 1.1~rc1
 _ZN2bt8BEncoderD2Ev@Base 1.1~rc1
 _ZN2bt8BusErrorC1Eb@Base 1.1~rc1
 _ZN2bt8BusErrorC2Eb@Base 1.1~rc1
 _ZN2bt8BusErrorD0Ev@Base 1.1~rc1
 _ZN2bt8BusErrorD1Ev@Base 1.1~rc1
 _ZN2bt8BusErrorD2Ev@Base 1.1~rc1
 _ZN2bt8CopyFileERK7QStringS2_b@Base 1.1~rc1
 _ZN2bt8FileSizeERK7QString@Base 1.1~rc1
 _ZN2bt8FileSizeEi@Base 1.1~rc1
 _ZN2bt8JobQueue10currentJobEv@Base 1.1~rc1
 _ZN2bt8JobQueue11qt_metacallEN11QMetaObject4CallEiPPv@Base 1.1~rc1
 _ZN2bt8JobQueue11qt_metacastEPKc@Base 1.1~rc1
 _ZN2bt8JobQueue12startNextJobEv@Base 1.1~rc1
 _ZN2bt8JobQueue16staticMetaObjectE@Base 1.1~rc1
 _ZN2bt8JobQueue7enqueueEPNS_3JobE@Base 1.1~rc1
 _ZN2bt8JobQueue7jobDoneEP4KJob@Base 1.1~rc1
 _ZN2bt8JobQueue7killAllEv@Base 1.1~rc1
 _ZN2bt8JobQueueC1EPNS_14TorrentControlE@Base 1.1~rc1
 _ZN2bt8JobQueueC2EPNS_14TorrentControlE@Base 1.1~rc1
 _ZN2bt8JobQueueD0Ev@Base 1.1~rc1
 _ZN2bt8JobQueueD1Ev@Base 1.1~rc1
 _ZN2bt8JobQueueD2Ev@Base 1.1~rc1
 _ZN2bt8MakePathERK7QStringb@Base 1.1~rc1
 _ZN2bt8Resource7releaseEv@Base 1.1~rc1
 _ZN2bt8ResourceC1EPNS_15ResourceManagerERK7QString@Base 1.1~rc1
 _ZN2bt8ResourceC2EPNS_15ResourceManagerERK7QString@Base 1.1~rc1
 _ZN2bt8ResourceD0Ev@Base 1.1~rc1
 _ZN2bt8ResourceD1Ev@Base 1.1~rc1
 _ZN2bt8ResourceD2Ev@Base 1.1~rc1
 _ZN2bt8SHA1Hash8generateEPKhj@Base 1.1~rc1
 _ZN2bt8SHA1HashC1EPKh@Base 1.1~rc1
 _ZN2bt8SHA1HashC1ERKS0_@Base 1.1~rc1
 _ZN2bt8SHA1HashC1Ev@Base 1.1~rc1
 _ZN2bt8SHA1HashC2EPKh@Base 1.1~rc1
 _ZN2bt8SHA1HashC2ERKS0_@Base 1.1~rc1
 _ZN2bt8SHA1HashC2Ev@Base 1.1~rc1
 _ZN2bt8SHA1HashD0Ev@Base 1.1~rc1
 _ZN2bt8SHA1HashD1Ev@Base 1.1~rc1
 _ZN2bt8SHA1HashD2Ev@Base 1.1~rc1
 _ZN2bt8SHA1HashaSERKS0_@Base 1.1~rc1
 _ZN2bt8SeekFileEixi@Base 1.1~rc1
 _ZN2bt9BDictNode12getByteArrayERK7QString@Base 1.1~rc1
 _ZN2bt9BDictNode14printDebugInfoEv@Base 1.1~rc1
 _ZN2bt9BDictNode6getIntERK7QString@Base 1.1~rc1
 _ZN2bt9BDictNode6insertERK10QByteArrayPNS_5BNodeE@Base 1.1~rc1
 _ZN2bt9BDictNode7getDataERK7QString@Base 1.1~rc1
 _ZN2bt9BDictNode7getDictERK10QByteArray@Base 1.1~rc1
 _ZN2bt9BDictNode7getDictERK7QString@Base 1.1~rc1
 _ZN2bt9BDictNode7getListERK7QString@Base 1.1~rc1
 _ZN2bt9BDictNode8getInt64ERK7QString@Base 1.1~rc1
 _ZN2bt9BDictNode8getValueERK7QString@Base 1.1~rc1
 _ZN2bt9BDictNode9DictEntryD1Ev@Base 1.1.2
 _ZN2bt9BDictNode9DictEntryD2Ev@Base 1.1.2
 _ZN2bt9BDictNode9getStringERK7QStringP10QTextCodec@Base 1.1~rc1
 _ZN2bt9BDictNodeC1Ej@Base 1.1~rc1
 _ZN2bt9BDictNodeC2Ej@Base 1.1~rc1
 _ZN2bt9BDictNodeD0Ev@Base 1.1~rc1
 _ZN2bt9BDictNodeD1Ev@Base 1.1~rc1
 _ZN2bt9BDictNodeD2Ev@Base 1.1~rc1
 _ZN2bt9BListNode12getByteArrayEj@Base 1.1~rc1
 _ZN2bt9BListNode14printDebugInfoEv@Base 1.1~rc1
 _ZN2bt9BListNode6appendEPNS_5BNodeE@Base 1.1~rc1
 _ZN2bt9BListNode6getIntEj@Base 1.1~rc1
 _ZN2bt9BListNode7getDictEj@Base 1.1~rc1
 _ZN2bt9BListNode7getListEj@Base 1.1~rc1
 _ZN2bt9BListNode8getInt64Ej@Base 1.1~rc1
 _ZN2bt9BListNode8getValueEj@Base 1.1~rc1
 _ZN2bt9BListNode9getStringEjP10QTextCodec@Base 1.1~rc1
 _ZN2bt9BListNodeC1Ej@Base 1.1~rc1
 _ZN2bt9BListNodeC2Ej@Base 1.1~rc1
 _ZN2bt9BListNodeD0Ev@Base 1.1~rc1
 _ZN2bt9BListNodeD1Ev@Base 1.1~rc1
 _ZN2bt9BListNodeD2Ev@Base 1.1~rc1
 _ZN2bt9DiskUsageERK7QString@Base 1.1~rc1
 _ZN2bt9DiskUsageEi@Base 1.1~rc1
 _ZN2bt9PieceData10updateHashERNS_11SHA1HashGenE@Base 1.1~rc1
 _ZN2bt9PieceData11writeToFileERNS_4FileEjj@Base 1.1~rc1
 _ZN2bt9PieceData12readFromFileERNS_4FileEjj@Base 1.1~rc1
 _ZN2bt9PieceData4readEPhjj@Base 1.1~rc1
 _ZN2bt9PieceData5writeEPKhjj@Base 1.1~rc1
 _ZN2bt9PieceData6unloadEv@Base 1.1~rc1
 _ZN2bt9PieceData8unmappedEv@Base 1.1~rc1
 _ZN2bt9PieceDataC1EPNS_5ChunkEjjPhPNS_9CacheFileEb@Base 1.1~rc1
 _ZN2bt9PieceDataC2EPNS_5ChunkEjjPhPNS_9CacheFileEb@Base 1.1~rc1
 _ZN2bt9PieceDataD0Ev@Base 1.1~rc1
 _ZN2bt9PieceDataD1Ev@Base 1.1~rc1
 _ZN2bt9PieceDataD2Ev@Base 1.1~rc1
 _ZN2bt9ReadInt16EPKhj@Base 1.1~rc1
 _ZN2bt9ReadInt32EPKhj@Base 1.1~rc1
 _ZN2bt9ReadInt64EPKhj@Base 1.1~rc1
 _ZN2bt9StatsFile10readStringERK7QString@Base 1.1~rc1
 _ZN2bt9StatsFile10readUint64ERK7QString@Base 1.1~rc1
 _ZN2bt9StatsFile11readBooleanERK7QString@Base 1.1~rc1
 _ZN2bt9StatsFile4syncEv@Base 1.1~rc1
 _ZN2bt9StatsFile5writeERK7QStringS3_@Base 1.1~rc1
 _ZN2bt9StatsFile7readIntERK7QString@Base 1.1~rc1
 _ZN2bt9StatsFile9readFloatERK7QString@Base 1.1~rc1
 _ZN2bt9StatsFile9readULongERK7QString@Base 1.1~rc1
 _ZN2bt9StatsFileC1ERK7QString@Base 1.1~rc1
 _ZN2bt9StatsFileC2ERK7QString@Base 1.1~rc1
 _ZN2bt9StatsFileD0Ev@Base 1.1~rc1
 _ZN2bt9StatsFileD1Ev@Base 1.1~rc1
 _ZN2bt9StatsFileD2Ev@Base 1.1~rc1
 _ZN2bteoERKNS_8SHA1HashES2_@Base 1.1~rc1
 _ZN2btlsERNS_3LogERKNS_8SHA1HashE@Base 1.1~rc1
 _ZN2btltERKNS_8SHA1HashES2_@Base 1.1~rc1
 _ZN3dht13DHTPeerSource10addDHTNodeERKN2bt7DHTNodeE@Base 1.1~rc1
 _ZN3dht13DHTPeerSource10dhtStoppedEv@Base 1.1~rc1
 _ZN3dht13DHTPeerSource10onFinishedEPNS_4TaskE@Base 1.1~rc1
 _ZN3dht13DHTPeerSource11onDataReadyEPNS_4TaskE@Base 1.1~rc1
 _ZN3dht13DHTPeerSource11qt_metacallEN11QMetaObject4CallEiPPv@Base 1.1~rc1
 _ZN3dht13DHTPeerSource11qt_metacastEPKc@Base 1.1~rc1
 _ZN3dht13DHTPeerSource12manualUpdateEv@Base 1.1~rc1
 _ZN3dht13DHTPeerSource16staticMetaObjectE@Base 1.1~rc1
 _ZN3dht13DHTPeerSource18setRequestIntervalEj@Base 1.1~rc1
 _ZN3dht13DHTPeerSource4stopEPN2bt7WaitJobE@Base 1.1~rc1
 _ZN3dht13DHTPeerSource5startEv@Base 1.1~rc1
 _ZN3dht13DHTPeerSource9doRequestEv@Base 1.1~rc1
 _ZN3dht13DHTPeerSource9onTimeoutEv@Base 1.1~rc1
 _ZN3dht13DHTPeerSourceC1ERNS_7DHTBaseERKN2bt8SHA1HashERK7QString@Base 1.1~rc1
 _ZN3dht13DHTPeerSourceC2ERNS_7DHTBaseERKN2bt8SHA1HashERK7QString@Base 1.1~rc1
 _ZN3dht13DHTPeerSourceD0Ev@Base 1.1~rc1
 _ZN3dht13DHTPeerSourceD1Ev@Base 1.1~rc1
 _ZN3dht13DHTPeerSourceD2Ev@Base 1.1~rc1
 _ZN3mse12RC4Encryptor14encryptReplaceEPhj@Base 1.1~rc1
 _ZN3mse12RC4Encryptor7decryptEPhj@Base 1.1~rc1
 _ZN3mse12RC4Encryptor7encryptEPKhj@Base 1.1~rc1
 _ZN3mse12RC4EncryptorC1ERKN2bt8SHA1HashES4_@Base 1.1~rc1
 _ZN3mse12RC4EncryptorC2ERKN2bt8SHA1HashES4_@Base 1.1~rc1
 _ZN3mse12RC4EncryptorD0Ev@Base 1.1~rc1
 _ZN3mse12RC4EncryptorD1Ev@Base 1.1~rc1
 _ZN3mse12RC4EncryptorD2Ev@Base 1.1~rc1
 _ZN3mse12StreamSocket11onDataReadyEPhj@Base 1.1~rc1
 _ZN3mse12StreamSocket11setGroupIDsEjj@Base 1.1~rc1
 _ZN3mse12StreamSocket12disableCryptEv@Base 1.1~rc1
 _ZN3mse12StreamSocket12updateSpeedsEv@Base 1.1~rc1
 _ZN3mse12StreamSocket14onReadyToWriteEPhj@Base 1.1~rc1
 _ZN3mse12StreamSocket14stopMonitoringEv@Base 1.1~rc1
 _ZN3mse12StreamSocket15setRC4EncryptorEPNS_12RC4EncryptorE@Base 1.1~rc1
 _ZN3mse12StreamSocket15startMonitoringEPN3net12SocketReaderEPNS1_12SocketWriterE@Base 1.1~rc1
 _ZN3mse12StreamSocket16setRemoteAddressERKN3net7AddressE@Base 1.1~rc1
 _ZN3mse12StreamSocket3tosE@Base 1.1~rc1
 _ZN3mse12StreamSocket5closeEv@Base 1.1~rc1
 _ZN3mse12StreamSocket8readDataEPhj@Base 1.1~rc1
 _ZN3mse12StreamSocket8reinsertEPKhj@Base 1.1~rc1
 _ZN3mse12StreamSocket8sendDataEPKhj@Base 1.1~rc1
 _ZN3mse12StreamSocket9connectToERK7QStringt@Base 1.1~rc1
 _ZN3mse12StreamSocket9connectToERKN3net7AddressE@Base 1.1~rc1
 _ZN3mse12StreamSocket9initCryptERKN2bt8SHA1HashES4_@Base 1.1~rc1
 _ZN3mse12StreamSocketC1EPN3net12SocketDeviceE@Base 1.1~rc1
 _ZN3mse12StreamSocketC1Ei@Base 1.1~rc1
 _ZN3mse12StreamSocketC1Eii@Base 1.1~rc1
 _ZN3mse12StreamSocketC2EPN3net12SocketDeviceE@Base 1.1~rc1
 _ZN3mse12StreamSocketC2Ei@Base 1.1~rc1
 _ZN3mse12StreamSocketC2Eii@Base 1.1~rc1
 _ZN3mse12StreamSocketD0Ev@Base 1.1~rc1
 _ZN3mse12StreamSocketD1Ev@Base 1.1~rc1
 _ZN3mse12StreamSocketD2Ev@Base 1.1~rc1
 _ZN3net10WakeUpPipe10handleDataEv@Base 1.1~rc1
 _ZN3net10WakeUpPipe5resetEv@Base 1.1~rc1
 _ZN3net10WakeUpPipe6wakeUpEv@Base 1.1~rc1
 _ZN3net10WakeUpPipeC1Ev@Base 1.1~rc1
 _ZN3net10WakeUpPipeC2Ev@Base 1.1~rc1
 _ZN3net10WakeUpPipeD0Ev@Base 1.1~rc1
 _ZN3net10WakeUpPipeD1Ev@Base 1.1~rc1
 _ZN3net10WakeUpPipeD2Ev@Base 1.1~rc1
 _ZN3net12ServerSocket11qt_metacallEN11QMetaObject4CallEiPPv@Base 1.1~rc1
 _ZN3net12ServerSocket11qt_metacastEPKc@Base 1.1~rc1
 _ZN3net12ServerSocket11readyToReadEi@Base 1.1~rc1
 _ZN3net12ServerSocket12readyToWriteEi@Base 1.1~rc1
 _ZN3net12ServerSocket13readyToAcceptEi@Base 1.1~rc1
 _ZN3net12ServerSocket16staticMetaObjectE@Base 1.1~rc1
 _ZN3net12ServerSocket27setReadNotificationsEnabledEb@Base 1.1~rc1
 _ZN3net12ServerSocket28setWriteNotificationsEnabledEb@Base 1.1~rc1
 _ZN3net12ServerSocket4bindERK7QStringt@Base 1.1~rc1
 _ZN3net12ServerSocket4bindERKNS_7AddressE@Base 1.1~rc1
 _ZN3net12ServerSocket6sendToEPKhiRKNS_7AddressE@Base 1.1~rc1
 _ZN3net12ServerSocket6sendToERK10QByteArrayRKNS_7AddressE@Base 1.1~rc1
 _ZN3net12ServerSocket6setTOSEh@Base 1.1~rc1
 _ZN3net12ServerSocketC1EPNS0_11DataHandlerE@Base 1.1~rc1
 _ZN3net12ServerSocketC1EPNS0_17ConnectionHandlerE@Base 1.1~rc1
 _ZN3net12ServerSocketC2EPNS0_11DataHandlerE@Base 1.1~rc1
 _ZN3net12ServerSocketC2EPNS0_17ConnectionHandlerE@Base 1.1~rc1
 _ZN3net12ServerSocketD0Ev@Base 1.1~rc1
 _ZN3net12ServerSocketD1Ev@Base 1.1~rc1
 _ZN3net12ServerSocketD2Ev@Base 1.1~rc1
 _ZN3net13SocketMonitor11removeGroupENS0_9GroupTypeEj@Base 1.1~rc1
 _ZN3net13SocketMonitor12getUploadCapEv@Base 1.1~rc1
 _ZN3net13SocketMonitor12setSleepTimeEj@Base 1.1~rc1
 _ZN3net13SocketMonitor12setUploadCapEj@Base 1.1~rc1
 _ZN3net13SocketMonitor13setGroupLimitENS0_9GroupTypeEjj@Base 1.1~rc1
 _ZN3net13SocketMonitor14getDownloadCapEv@Base 1.1~rc1
 _ZN3net13SocketMonitor14setDownloadCapEj@Base 1.1~rc1
 _ZN3net13SocketMonitor17signalPacketReadyEv@Base 1.1~rc1
 _ZN3net13SocketMonitor19setGroupAssuredRateENS0_9GroupTypeEjj@Base 1.1~rc1
 _ZN3net13SocketMonitor3addEPNS_14BufferedSocketE@Base 1.1~rc1
 _ZN3net13SocketMonitor4lockEv@Base 1.1~rc1
 _ZN3net13SocketMonitor4selfE@Base 1.1~rc1
 _ZN3net13SocketMonitor6removeEPNS_14BufferedSocketE@Base 1.1~rc1
 _ZN3net13SocketMonitor6unlockEv@Base 1.1~rc1
 _ZN3net13SocketMonitor7Private8shutdownEv@Base 1.1~rc1
 _ZN3net13SocketMonitor8newGroupENS0_9GroupTypeEjj@Base 1.1~rc1
 _ZN3net13SocketMonitor8shutdownEv@Base 1.1~rc1
 _ZN3net13SocketMonitorC1Ev@Base 1.1~rc1
 _ZN3net13SocketMonitorC2Ev@Base 1.1~rc1
 _ZN3net13SocketMonitorD0Ev@Base 1.1~rc1
 _ZN3net13SocketMonitorD1Ev@Base 1.1~rc1
 _ZN3net13SocketMonitorD2Ev@Base 1.1~rc1
 _ZN3net4Poll3addE14QSharedPointerINS_10PollClientEE@Base 1.1~rc1
 _ZN3net4Poll3addEiNS0_4ModeE@Base 1.1~rc1
 _ZN3net4Poll4pollEi@Base 1.1~rc1
 _ZN3net4Poll5resetEv@Base 1.1~rc1
 _ZN3net4PollC1Ev@Base 1.1~rc1
 _ZN3net4PollC2Ev@Base 1.1~rc1
 _ZN3net4PollD0Ev@Base 1.1~rc1
 _ZN3net4PollD1Ev@Base 1.1~rc1
 _ZN3net4PollD2Ev@Base 1.1~rc1
 _ZN3net4PortC1ERKS0_@Base 1.1~rc1
 _ZN3net4PortC1EtNS_8ProtocolEb@Base 1.1~rc1
 _ZN3net4PortC1Ev@Base 1.1~rc1
 _ZN3net4PortC2ERKS0_@Base 1.1~rc1
 _ZN3net4PortC2EtNS_8ProtocolEb@Base 1.1~rc1
 _ZN3net4PortC2Ev@Base 1.1~rc1
 _ZN3net5Socks13onReadyToReadEv@Base 1.1~rc1
 _ZN3net5Socks13socks_enabledE@Base 1.1~rc1
 _ZN3net5Socks13socks_versionE@Base 1.1~rc1
 _ZN3net5Socks14onReadyToWriteEv@Base 1.1~rc1
 _ZN3net5Socks14socks_passwordE@Base 1.1~rc1
 _ZN3net5Socks14socks_usernameE@Base 1.1~rc1
 _ZN3net5Socks15handleAuthReplyEv@Base 1.1~rc1
 _ZN3net5Socks15sendAuthRequestEv@Base 1.1~rc1
 _ZN3net5Socks17socks_server_hostE@Base 1.1~rc1
 _ZN3net5Socks17socks_server_portE@Base 1.1~rc1
 _ZN3net5Socks18handleConnectReplyEv@Base 1.1~rc1
 _ZN3net5Socks18sendConnectRequestEv@Base 1.1~rc1
 _ZN3net5Socks20sendUsernamePasswordEv@Base 1.1~rc1
 _ZN3net5Socks21setSocksServerAddressERK7QStringt@Base 1.1~rc1
 _ZN3net5Socks22setSocksAuthenticationERK7QStringS3_@Base 1.1~rc1
 _ZN3net5Socks27handleUsernamePasswordReplyEv@Base 1.1~rc1
 _ZN3net5Socks5setupEv@Base 1.1~rc1
 _ZN3net5SocksC1E14QSharedPointerIN3mse12StreamSocketEERKNS_7AddressE@Base 1.1~rc1
 _ZN3net5SocksC2E14QSharedPointerIN3mse12StreamSocketEERKNS_7AddressE@Base 1.1~rc1
 _ZN3net5SocksD0Ev@Base 1.1~rc1
 _ZN3net5SocksD1Ev@Base 1.1~rc1
 _ZN3net5SocksD2Ev@Base 1.1~rc1
 _ZN3net6Socket11setBlockingEb@Base 1.1~rc1
 _ZN3net6Socket12cacheAddressEv@Base 1.1~rc1
 _ZN3net6Socket17connectSuccesFullEv@Base 1.1~rc1
 _ZN3net6Socket4bindERK7QStringtb@Base 1.1~rc1
 _ZN3net6Socket4bindERKNS_7AddressEb@Base 1.1~rc1
 _ZN3net6Socket4recvEPhi@Base 1.1~rc1
 _ZN3net6Socket4sendEPKhi@Base 1.1~rc1
 _ZN3net6Socket4takeEv@Base 1.1~rc1
 _ZN3net6Socket5closeEv@Base 1.1~rc1
 _ZN3net6Socket5resetEv@Base 1.1~rc1
 _ZN3net6Socket6acceptERNS_7AddressE@Base 1.1~rc1
 _ZN3net6Socket6sendToEPKhiRKNS_7AddressE@Base 1.1~rc1
 _ZN3net6Socket6setTOSEh@Base 1.1~rc1
 _ZN3net6Socket7prepareEPNS_4PollENS1_4ModeE@Base 1.1~rc1
 _ZN3net6Socket8recvFromEPhiRNS_7AddressE@Base 1.1~rc1
 _ZN3net6Socket9connectToERKNS_7AddressE@Base 1.1~rc1
 _ZN3net6SocketC1Ebi@Base 1.1~rc1
 _ZN3net6SocketC1Eii@Base 1.1~rc1
 _ZN3net6SocketC2Ebi@Base 1.1~rc1
 _ZN3net6SocketC2Eii@Base 1.1~rc1
 _ZN3net6SocketD0Ev@Base 1.1~rc1
 _ZN3net6SocketD1Ev@Base 1.1~rc1
 _ZN3net6SocketD2Ev@Base 1.1~rc1
 _ZN3net7Address4nullE@Base 1.1~rc1
 _ZN3net7AddressC1ERK7QStringt@Base 1.1~rc1
 _ZN3net7AddressC1ERKN8KNetwork18KInetSocketAddressE@Base 1.1~rc1
 _ZN3net7AddressC1ERKS0_@Base 1.1~rc1
 _ZN3net7AddressC1Ev@Base 1.1~rc1
 _ZN3net7AddressC2ERK7QStringt@Base 1.1~rc1
 _ZN3net7AddressC2ERKN8KNetwork18KInetSocketAddressE@Base 1.1~rc1
 _ZN3net7AddressC2ERKS0_@Base 1.1~rc1
 _ZN3net7AddressC2Ev@Base 1.1~rc1
 _ZN3net7AddressD0Ev@Base 1.1~rc1
 _ZN3net7AddressD1Ev@Base 1.1~rc1
 _ZN3net7AddressD2Ev@Base 1.1~rc1
 _ZN3net8PortList10addNewPortEtNS_8ProtocolEb@Base 1.1~rc1
 _ZN3net8PortList10removePortEtNS_8ProtocolE@Base 1.1~rc1
 _ZN3net8PortListC1Ev@Base 1.1~rc1
 _ZN3net8PortListC2Ev@Base 1.1~rc1
 _ZN3net8PortListD0Ev@Base 1.1~rc1
 _ZN3net8PortListD1Ev@Base 1.1~rc1
 _ZN3net8PortListD2Ev@Base 1.1~rc1
 _ZN3utp10Connection10checkStateEv@Base 1.1~rc1
 _ZN3utp10Connection10retransmitERK10QByteArrayt@Base 1.1~rc1
 _ZN3utp10Connection10sendPacketEjt@Base 1.1~rc1
 _ZN3utp10Connection10startTimerEv@Base 1.1~rc1
 _ZN3utp10Connection11qt_metacallEN11QMetaObject4CallEiPPv@Base 1.1~rc1
 _ZN3utp10Connection11qt_metacastEPKc@Base 1.1~rc1
 _ZN3utp10Connection11sendPacketsEv@Base 1.1~rc1
 _ZN3utp10Connection11waitForDataEj@Base 1.1~rc1
 _ZN3utp10Connection12handlePacketERKNS_12PacketParserERK10QByteArray@Base 1.1~rc1
 _ZN3utp10Connection13checkIfClosedEv@Base 1.1~rc1
 _ZN3utp10Connection13handleTimeoutEv@Base 1.1~rc1
 _ZN3utp10Connection14sendDataPacketERK10QByteArray@Base 1.1~rc1
 _ZN3utp10Connection14sendDataPacketERK10QByteArraytRKNS_9TimeValueE@Base 1.1~rc1
 _ZN3utp10Connection15sendStateOrDataEv@Base 1.1~rc1
 _ZN3utp10Connection15startConnectingEv@Base 1.1~rc1
 _ZN3utp10Connection16staticMetaObjectE@Base 1.1~rc1
 _ZN3utp10Connection17TransmissionErrorC1EPKci@Base 1.1~rc1
 _ZN3utp10Connection17TransmissionErrorC2EPKci@Base 1.1~rc1
 _ZN3utp10Connection17TransmissionErrorD1Ev@Base 1.1.2
 _ZN3utp10Connection17TransmissionErrorD2Ev@Base 1.1.2
 _ZN3utp10Connection17delayedStartTimerEv@Base 1.1~rc1
 _ZN3utp10Connection18waitUntilConnectedEv@Base 1.1~rc1
 _ZN3utp10Connection19doDelayedStartTimerEv@Base 1.1~rc1
 _ZN3utp10Connection22updateDelayMeasurementEPKNS_6HeaderE@Base 1.1~rc1
 _ZN3utp10Connection4recvEPhj@Base 1.1~rc1
 _ZN3utp10Connection4sendEPKhj@Base 1.1~rc1
 _ZN3utp10Connection5closeEv@Base 1.1~rc1
 _ZN3utp10Connection5resetEv@Base 1.1~rc1
 _ZN3utp10Connection7sendFINEv@Base 1.1~rc1
 _ZN3utp10Connection7sendSYNEv@Base 1.1~rc1
 _ZN3utp10Connection9dumpStatsEv@Base 1.1~rc1
 _ZN3utp10Connection9sendResetEv@Base 1.1~rc1
 _ZN3utp10Connection9sendStateEv@Base 1.1~rc1
 _ZN3utp10Connection9updateRTTEPKNS_6HeaderEjj@Base 1.1~rc1
 _ZN3utp10ConnectionC1EtNS0_4TypeERKN3net7AddressEPNS_11TransmitterE@Base 1.1~rc1
 _ZN3utp10ConnectionC2EtNS0_4TypeERKN3net7AddressEPNS_11TransmitterE@Base 1.1~rc1
 _ZN3utp10ConnectionD0Ev@Base 1.1~rc1
 _ZN3utp10ConnectionD1Ev@Base 1.1~rc1
 _ZN3utp10ConnectionD2Ev@Base 1.1~rc1
 _ZN3utp11DelayWindow6updateEPKNS_6HeaderEy@Base 1.1~rc1
 _ZN3utp11DelayWindowC1Ev@Base 1.1~rc1
 _ZN3utp11DelayWindowC2Ev@Base 1.1~rc1
 _ZN3utp11DelayWindowD0Ev@Base 1.1~rc1
 _ZN3utp11DelayWindowD1Ev@Base 1.1~rc1
 _ZN3utp11DelayWindowD2Ev@Base 1.1~rc1
 _ZN3utp11LocalWindow12setLastSeqNrEt@Base 1.1~rc1
 _ZN3utp11LocalWindow14packetReceivedEPKNS_6HeaderEPKhj@Base 1.1~rc1
 _ZN3utp11LocalWindow16fillSelectiveAckEPNS_12SelectiveAckE@Base 1.1~rc1
 _ZN3utp11LocalWindow18checkFuturePacketsEv@Base 1.1~rc1
 _ZN3utp11LocalWindow4readEPhj@Base 1.1~rc1
 _ZN3utp11LocalWindowC1Ej@Base 1.1~rc1
 _ZN3utp11LocalWindowC2Ej@Base 1.1~rc1
 _ZN3utp11LocalWindowD0Ev@Base 1.1~rc1
 _ZN3utp11LocalWindowD1Ev@Base 1.1~rc1
 _ZN3utp11LocalWindowD2Ev@Base 1.1~rc1
 _ZN3utp12PacketParser5parseEv@Base 1.1~rc1
 _ZN3utp12PacketParserC1EPKhj@Base 1.1~rc1
 _ZN3utp12PacketParserC1ERK10QByteArray@Base 1.1~rc1
 _ZN3utp12PacketParserC2EPKhj@Base 1.1~rc1
 _ZN3utp12PacketParserC2ERK10QByteArray@Base 1.1~rc1
 _ZN3utp12PacketParserD1Ev@Base 1.1~rc1
 _ZN3utp12PacketParserD2Ev@Base 1.1~rc1
 _ZN3utp12RemoteWindow14packetReceivedEPKNS_6HeaderEPKNS_12SelectiveAckEPNS_13RetransmitterE@Base 1.1~rc1
 _ZN3utp12RemoteWindow16checkLostPacketsEPKNS_6HeaderEPKNS_12SelectiveAckEPNS_13RetransmitterE@Base 1.1~rc1
 _ZN3utp12RemoteWindow16updateWindowSizeEd@Base 1.1~rc1
 _ZN3utp12RemoteWindow4lostEPKNS_12SelectiveAckE@Base 1.1~rc1
 _ZN3utp12RemoteWindow5clearEv@Base 1.1~rc1
 _ZN3utp12RemoteWindow7timeoutEPNS_13RetransmitterE@Base 1.1~rc1
 _ZN3utp12RemoteWindow9addPacketERK10QByteArrayty@Base 1.1~rc1
 _ZN3utp12RemoteWindowC1Ev@Base 1.1~rc1
 _ZN3utp12RemoteWindowC2Ev@Base 1.1~rc1
 _ZN3utp12RemoteWindowD0Ev@Base 1.1~rc1
 _ZN3utp12RemoteWindowD1Ev@Base 1.1~rc1
 _ZN3utp12RemoteWindowD2Ev@Base 1.1~rc1
 _ZN3utp12TypeToStringEh@Base 1.1~rc1
 _ZN3utp15UTPServerThread11qt_metacallEN11QMetaObject4CallEiPPv@Base 1.1~rc1
 _ZN3utp15UTPServerThread11qt_metacastEPKc@Base 1.1~rc1
 _ZN3utp15UTPServerThread16staticMetaObjectE@Base 1.1~rc1
 _ZN3utp15UTPServerThread3runEv@Base 1.1~rc1
 _ZN3utp15UTPServerThreadC1EPNS_9UTPServerE@Base 1.1~rc1
 _ZN3utp15UTPServerThreadC2EPNS_9UTPServerE@Base 1.1~rc1
 _ZN3utp15UTPServerThreadD0Ev@Base 1.1~rc1
 _ZN3utp15UTPServerThreadD1Ev@Base 1.1~rc1
 _ZN3utp15UTPServerThreadD2Ev@Base 1.1~rc1
 _ZN3utp3AckEPNS_12SelectiveAckEt@Base 1.1~rc1
 _ZN3utp5AckedEPKNS_12SelectiveAckEt@Base 1.1~rc1
 _ZN3utp6Header4readEPKh@Base 1.1~rc1
 _ZN3utp6Header4sizeEv@Base 1.1~rc1
 _ZN3utp6Header5writeEPh@Base 1.1~rc1
 _ZN3utp9TimeValueC1ERKS0_@Base 1.1~rc1
 _ZN3utp9TimeValueC1Ev@Base 1.1~rc1
 _ZN3utp9TimeValueC1Eyy@Base 1.1~rc1
 _ZN3utp9TimeValueC2ERKS0_@Base 1.1~rc1
 _ZN3utp9TimeValueC2Ev@Base 1.1~rc1
 _ZN3utp9TimeValueC2Eyy@Base 1.1~rc1
 _ZN3utp9TimeValueaSERKS0_@Base 1.1~rc1
 _ZN3utp9UTPServer10changePortEt@Base 1.1~rc1
 _ZN3utp9UTPServer10timerEventEP11QTimerEvent@Base 1.1~rc1
 _ZN3utp9UTPServer11cancelTimerEi@Base 1.1~rc1
 _ZN3utp9UTPServer11customEventEP6QEvent@Base 1.1~rc1
 _ZN3utp9UTPServer11qt_metacallEN11QMetaObject4CallEiPPv@Base 1.1~rc1
 _ZN3utp9UTPServer11qt_metacastEPKc@Base 1.1~rc1
 _ZN3utp9UTPServer12handlePacketERK10QByteArrayRKN3net7AddressE@Base 1.1~rc1
 _ZN3utp9UTPServer12stateChangedE14QSharedPointerINS_10ConnectionEEbb@Base 1.1~rc1
 _ZN3utp9UTPServer13scheduleTimerE14QSharedPointerINS_10ConnectionEEj@Base 1.1~rc1
 _ZN3utp9UTPServer13threadStartedEv@Base 1.1~rc1
 _ZN3utp9UTPServer14preparePollingEPN3net4PollENS2_4ModeE14QSharedPointerINS_10ConnectionEE@Base 1.1~rc1
 _ZN3utp9UTPServer16setCreateSocketsEb@Base 1.1~rc1
 _ZN3utp9UTPServer16staticMetaObjectE@Base 1.1~rc1
 _ZN3utp9UTPServer18acceptedConnectionEv@Base 1.1~rc1
 _ZN3utp9UTPServer24handlePendingConnectionsEv@Base 1.1~rc1
 _ZN3utp9UTPServer31handlePendingConnectionsDelayedEv@Base 1.1~rc1
 _ZN3utp9UTPServer4stopEv@Base 1.1~rc1
 _ZN3utp9UTPServer5startEv@Base 1.1~rc1
 _ZN3utp9UTPServer6closedE14QSharedPointerINS_10ConnectionEE@Base 1.1~rc1
 _ZN3utp9UTPServer6sendToE14QSharedPointerINS_10ConnectionEERK10QByteArray@Base 1.1~rc1
 _ZN3utp9UTPServer6setTOSEh@Base 1.1~rc1
 _ZN3utp9UTPServer7Private12dataReceivedERK10QByteArrayRKN3net7AddressE@Base 1.1~rc1
 _ZN3utp9UTPServer7Private12readyToWriteEPN3net12ServerSocketE@Base 1.1~rc1
 _ZN3utp9UTPServer7Private15wakeUpPollPipesE14QSharedPointerINS_10ConnectionEEbb@Base 1.1~rc1
 _ZN3utp9UTPServer7Private3synERKNS_12PacketParserERK10QByteArrayRKN3net7AddressE@Base 1.1~rc1
 _ZN3utp9UTPServer7Private4bindERKN3net7AddressE@Base 1.1~rc1
 _ZN3utp9UTPServer7Private4findEt@Base 1.1~rc1
 _ZN3utp9UTPServer7Private4stopEv@Base 1.1~rc1
 _ZN3utp9UTPServer7Private5resetEPKNS_6HeaderE@Base 1.1~rc1
 _ZN3utp9UTPServer7PrivateC1EPS0_@Base 1.1~rc1
 _ZN3utp9UTPServer7PrivateC2EPS0_@Base 1.1~rc1
 _ZN3utp9UTPServer7PrivateD0Ev@Base 1.1~rc1
 _ZN3utp9UTPServer7PrivateD1Ev@Base 1.1~rc1
 _ZN3utp9UTPServer7PrivateD2Ev@Base 1.1~rc1
 _ZN3utp9UTPServer7cleanupEv@Base 1.1~rc1
 _ZN3utp9UTPServer8acceptedEv@Base 1.1~rc1
 _ZN3utp9UTPServer9connectToERKN3net7AddressE@Base 1.1~rc1
 _ZN3utp9UTPServerC1EP7QObject@Base 1.1~rc1
 _ZN3utp9UTPServerC2EP7QObject@Base 1.1~rc1
 _ZN3utp9UTPServerD0Ev@Base 1.1~rc1
 _ZN3utp9UTPServerD1Ev@Base 1.1~rc1
 _ZN3utp9UTPServerD2Ev@Base 1.1~rc1
 _ZN3utp9UTPSocket11setBlockingEb@Base 1.1~rc1
 _ZN3utp9UTPSocket17connectSuccesFullEv@Base 1.1~rc1
 _ZN3utp9UTPSocket4recvEPhi@Base 1.1~rc1
 _ZN3utp9UTPSocket4sendEPKhi@Base 1.1~rc1
 _ZN3utp9UTPSocket5closeEv@Base 1.1~rc1
 _ZN3utp9UTPSocket5resetEv@Base 1.1~rc1
 _ZN3utp9UTPSocket6setTOSEh@Base 1.1~rc1
 _ZN3utp9UTPSocket7prepareEPN3net4PollENS2_4ModeE@Base 1.1~rc1
 _ZN3utp9UTPSocket9connectToERKN3net7AddressE@Base 1.1~rc1
 _ZN3utp9UTPSocketC1E12QWeakPointerINS_10ConnectionEE@Base 1.1~rc1
 _ZN3utp9UTPSocketC1Ev@Base 1.1~rc1
 _ZN3utp9UTPSocketC2E12QWeakPointerINS_10ConnectionEE@Base 1.1~rc1
 _ZN3utp9UTPSocketC2Ev@Base 1.1~rc1
 _ZN3utp9UTPSocketD0Ev@Base 1.1~rc1
 _ZN3utp9UTPSocketD1Ev@Base 1.1~rc1
 _ZN3utp9UTPSocketD2Ev@Base 1.1~rc1
 _ZN4KUrl4ListD1Ev@Base 1.1.2
 _ZN4KUrl4ListD2Ev@Base 1.1.2
 _ZNK2bt10Downloader10isFinishedEv@Base 1.1~rc1
 _ZNK2bt10Downloader10metaObjectEv@Base 1.1~rc1
 _ZNK2bt10Downloader11downloadingEj@Base 1.1~rc1
 _ZNK2bt10Downloader11endgameModeEv@Base 1.1~rc1
 _ZNK2bt10Downloader12downloadRateEv@Base 1.1~rc1
 _ZNK2bt10Downloader22canDownloadFromWebSeedEj@Base 1.1~rc1
 _ZNK2bt10Downloader22numDownloadersForChunkEj@Base 1.1~rc1
 _ZNK2bt10Downloader8downloadEj@Base 1.1~rc1
 _ZNK2bt10PeerSource10metaObjectEv@Base 1.1~rc1
 _ZNK2bt10UPnPRouter10metaObjectEv@Base 1.1~rc1
 _ZNK2bt10UPnPRouter11getLocationEv@Base 1.1~rc1
 _ZNK2bt10UPnPRouter13getExternalIPEv@Base 1.1~rc1
 _ZNK2bt10UPnPRouter14getDescriptionEv@Base 1.1~rc1
 _ZNK2bt10UPnPRouter5visitEPNS0_7VisitorE@Base 1.1~rc1
 _ZNK2bt10UPnPRouter8getErrorEv@Base 1.1~rc1
 _ZNK2bt10UPnPRouter9getServerEv@Base 1.1~rc1
 _ZNK2bt11DataChecker10metaObjectEv@Base 1.1~rc1
 _ZNK2bt11HTTPTracker10metaObjectEv@Base 1.1~rc1
 _ZNK2bt11PeerManager10getTorrentEv@Base 1.1~rc1
 _ZNK2bt11PeerManager10metaObjectEv@Base 1.1~rc1
 _ZNK2bt11PeerManager10uploadRateEv@Base 1.1~rc1
 _ZNK2bt11PeerManager12isPexEnabledEv@Base 1.1~rc1
 _ZNK2bt11PeerManager13getNumPendingEv@Base 1.1~rc1
 _ZNK2bt11PeerManager20getNumConnectedPeersEv@Base 1.1~rc1
 _ZNK2bt11PeerManager24getAvailableChunksBitSetEv@Base 1.1~rc1
 _ZNK2bt11PeerManager7Private11connectedToERK7QStringt@Base 1.1~rc1
 _ZNK2bt11PeerManager8getPeersEv@Base 1.1~rc1
 _ZNK2bt11PeerManager9isStartedEv@Base 1.1~rc1
 _ZNK2bt11SHA1HashGen3getEv@Base 1.1~rc1
 _ZNK2bt11TorrentFile10fileOffsetEjy@Base 1.1~rc1
 _ZNK2bt11TorrentFile10metaObjectEv@Base 1.1~rc1
 _ZNK2bt11TorrentFile12isMultimediaEv@Base 1.1~rc1
 _ZNK2bt12ChunkCounter3getEj@Base 1.1~rc1
 _ZNK2bt12ChunkManager10chunksLeftEv@Base 1.1~rc1
 _ZNK2bt12ChunkManager10getDataDirEv@Base 1.1~rc1
 _ZNK2bt12ChunkManager10metaObjectEv@Base 1.1~rc1
 _ZNK2bt12ChunkManager13bytesExcludedEv@Base 1.1~rc1
 _ZNK2bt12ChunkManager13getOutputPathEv@Base 1.1~rc1
 _ZNK2bt12ChunkManager13haveAllChunksEv@Base 1.1~rc1
 _ZNK2bt12ChunkManager14chunksExcludedEv@Base 1.1~rc1
 _ZNK2bt12ChunkManager14onlySeedChunksEv@Base 1.1~rc1
 _ZNK2bt12ChunkManager16chunksDownloadedEv@Base 1.1~rc1
 _ZNK2bt12ChunkManager16hasExistingFilesEv@Base 1.1~rc1
 _ZNK2bt12ChunkManager19bytesLeftToDownloadEv@Base 1.1~rc1
 _ZNK2bt12ChunkManager21previewChunkRangeSizeERKNS_11TorrentFileE@Base 1.1~rc1
 _ZNK2bt12ChunkManager21previewChunkRangeSizeEv@Base 1.1~rc1
 _ZNK2bt12ChunkManager9bytesLeftEv@Base 1.1~rc1
 _ZNK2bt12ChunkManager9completedEv@Base 1.1~rc1
 _ZNK2bt12TorrentStats10shareRatioEv@Base 1.1~rc1
 _ZNK2bt12TorrentStats12overMaxRatioEv@Base 1.1~rc1
 _ZNK2bt12TorrentStats14statusToStringEv@Base 1.1~rc1
 _ZNK2bt13ChunkDownload10metaObjectEv@Base 1.1~rc1
 _ZNK2bt13ChunkDownload13getChunkIndexEv@Base 1.1~rc1
 _ZNK2bt13ChunkDownload15bytesDownloadedEv@Base 1.1~rc1
 _ZNK2bt13ChunkDownload16getDownloadSpeedEv@Base 1.1~rc1
 _ZNK2bt13ChunkDownload22getPieceDownloaderNameEv@Base 1.1~rc1
 _ZNK2bt13ChunkDownload8isChokedEv@Base 1.1~rc1
 _ZNK2bt13ExitOperation10metaObjectEv@Base 1.1~rc1
 _ZNK2bt13TimeEstimator6sampleEv@Base 1.1~rc1
 _ZNK2bt13TimeEstimator9bytesLeftEv@Base 1.1~rc1
 _ZNK2bt14DataCheckerJob10metaObjectEv@Base 1.1~rc1
 _ZNK2bt14ExtractFileJob10metaObjectEv@Base 1.1~rc1
 _ZNK2bt14KIOAnnounceJob10metaObjectEv@Base 1.1~rc1
 _ZNK2bt14TorrentControl10getDHTNodeEj@Base 1.1~rc1
 _ZNK2bt14TorrentControl10getPeerMgrEv@Base 1.1~rc1
 _ZNK2bt14TorrentControl10getWebSeedEj@Base 1.1~rc1
 _ZNK2bt14TorrentControl10metaObjectEv@Base 1.1~rc1
 _ZNK2bt14TorrentControl11getCommentsEv@Base 1.1~rc1
 _ZNK2bt14TorrentControl11getInfoHashEv@Base 1.1~rc1
 _ZNK2bt14TorrentControl11getNumFilesEv@Base 1.1~rc1
 _ZNK2bt14TorrentControl12getOwnPeerIDEv@Base 1.1~rc1
 _ZNK2bt14TorrentControl12getTextCodecEv@Base 1.1~rc1
 _ZNK2bt14TorrentControl12isMultimediaEv@Base 1.1~rc1
 _ZNK2bt14TorrentControl13getSeederInfoERjS1_@Base 1.1~rc1
 _ZNK2bt14TorrentControl14getLeecherInfoERjS1_@Base 1.1~rc1
 _ZNK2bt14TorrentControl14getNumDHTNodesEv@Base 1.1~rc1
 _ZNK2bt14TorrentControl14getNumWebSeedsEv@Base 1.1~rc1
 _ZNK2bt14TorrentControl14getTorrentFileEj@Base 1.1~rc1
 _ZNK2bt14TorrentControl15getTrackersListEv@Base 1.1~rc1
 _ZNK2bt14TorrentControl15readyForPreviewEv@Base 1.1~rc1
 _ZNK2bt14TorrentControl16getRunningTimeDLEv@Base 1.1~rc1
 _ZNK2bt14TorrentControl16getRunningTimeULEv@Base 1.1~rc1
 _ZNK2bt14TorrentControl16hasExistingFilesEv@Base 1.1~rc1
 _ZNK2bt14TorrentControl20excludedChunksBitSetEv@Base 1.1~rc1
 _ZNK2bt14TorrentControl20onlySeedChunksBitSetEv@Base 1.1~rc1
 _ZNK2bt14TorrentControl21availableChunksBitSetEv@Base 1.1~rc1
 _ZNK2bt14TorrentControl22downloadedChunksBitSetEv@Base 1.1~rc1
 _ZNK2bt14TorrentCreator10metaObjectEv@Base 1.1~rc1
 _ZNK2bt14TrackerManager10metaObjectEv@Base 1.1~rc1
 _ZNK2bt14TrackerManager13bytesUploadedEv@Base 1.1~rc1
 _ZNK2bt14TrackerManager13getNumSeedersEv@Base 1.1~rc1
 _ZNK2bt14TrackerManager14getNumLeechersEv@Base 1.1~rc1
 _ZNK2bt14TrackerManager15bytesDownloadedEv@Base 1.1~rc1
 _ZNK2bt14TrackerManager17getCurrentTrackerEv@Base 1.1~rc1
 _ZNK2bt14TrackerManager19noTrackersReachableEv@Base 1.1~rc1
 _ZNK2bt14TrackerManager8infoHashEv@Base 1.1~rc1
 _ZNK2bt14TrackerManager9bytesLeftEv@Base 1.1~rc1
 _ZNK2bt15CompressFileJob10metaObjectEv@Base 1.1~rc1
 _ZNK2bt15HTTPAnnounceJob10metaObjectEv@Base 1.1~rc1
 _ZNK2bt15PieceDownloader10metaObjectEv@Base 1.1~rc1
 _ZNK2bt15ServerInterface10metaObjectEv@Base 1.1~rc1
 _ZNK2bt15UPnPMCastSocket10metaObjectEv@Base 1.1~rc1
 _ZNK2bt15UPnPMCastSocket23getNumDevicesDiscoveredEv@Base 1.1~rc1
 _ZNK2bt16LogSystemManager10metaObjectEv@Base 1.1~rc1
 _ZNK2bt16MagnetDownloader10metaObjectEv@Base 1.1~rc1
 _ZNK2bt16MagnetDownloader13bytesUploadedEv@Base 1.1~rc1
 _ZNK2bt16MagnetDownloader15bytesDownloadedEv@Base 1.1~rc1
 _ZNK2bt16MagnetDownloader7runningEv@Base 1.1~rc1
 _ZNK2bt16MagnetDownloader8infoHashEv@Base 1.1~rc1
 _ZNK2bt16MagnetDownloader8numPeersEv@Base 1.1~rc1
 _ZNK2bt16MagnetDownloader9bytesLeftEv@Base 1.1~rc1
 _ZNK2bt16PreallocationJob10metaObjectEv@Base 1.1~rc1
 _ZNK2bt16TorrentInterface10metaObjectEv@Base 1.1~rc1
 _ZNK2bt16TrackerInterface16timeToNextUpdateEv@Base 1.1~rc1
 _ZNK2bt16TrackerInterface19trackerStatusStringEv@Base 1.1~rc1
 _ZNK2bt16UDPTrackerSocket10metaObjectEv@Base 1.1~rc1
 _ZNK2bt17DecompressFileJob10metaObjectEv@Base 1.1~rc1
 _ZNK2bt17TorrentFileStream10metaObjectEv@Base 1.1~rc1
 _ZNK2bt17TorrentFileStream12chunksBitSetEv@Base 1.1~rc1
 _ZNK2bt17TorrentFileStream12currentChunkEv@Base 1.1~rc1
 _ZNK2bt17TorrentFileStream14bytesAvailableEv@Base 1.1~rc1
 _ZNK2bt17TorrentFileStream3posEv@Base 1.1~rc1
 _ZNK2bt17TorrentFileStream4pathEv@Base 1.1~rc1
 _ZNK2bt17TorrentFileStream4sizeEv@Base 1.1~rc1
 _ZNK2bt17TorrentFileStream5atEndEv@Base 1.1~rc1
 _ZNK2bt20TorrentFileInterface10metaObjectEv@Base 1.1~rc1
 _ZNK2bt20TorrentFileInterface21getDownloadPercentageEv@Base 1.1~rc1
 _ZNK2bt3Job10metaObjectEv@Base 1.1~rc1
 _ZNK2bt3Job13torrentStatusEv@Base 1.1~rc1
 _ZNK2bt4File11errorStringEv@Base 1.1~rc1
 _ZNK2bt4File3eofEv@Base 1.1~rc1
 _ZNK2bt4File4tellEv@Base 1.1~rc1
 _ZNK2bt4Peer10getAddressEv@Base 1.1~rc1
 _ZNK2bt4Peer10metaObjectEv@Base 1.1~rc1
 _ZNK2bt4Peer13getIPAddresssEv@Base 1.1~rc1
 _ZNK2bt4Peer13getUploadRateEv@Base 1.1~rc1
 _ZNK2bt4Peer14bytesAvailableEv@Base 1.1~rc1
 _ZNK2bt4Peer15getDownloadRateEv@Base 1.1~rc1
 _ZNK2bt4Peer15hasWantedChunksERKNS_6BitSetE@Base 1.1~rc1
 _ZNK2bt4Peer16percentAvailableEv@Base 1.1~rc1
 _ZNK2bt4Peer20averageDownloadSpeedEv@Base 1.1~rc1
 _ZNK2bt4Peer21getTimeSinceLastPieceEv@Base 1.1~rc1
 _ZNK2bt4Peer7getPortEv@Base 1.1~rc1
 _ZNK2bt4Peer8getStatsEv@Base 1.1~rc1
 _ZNK2bt4Peer9isSnubbedEv@Base 1.1~rc1
 _ZNK2bt4Peer9isStalledEv@Base 1.1~rc1
 _ZNK2bt5Timer21getElapsedSinceUpdateEv@Base 1.1~rc1
 _ZNK2bt5UTPex11needsUpdateEv@Base 1.1~rc1
 _ZNK2bt5Value8toStringEP10QTextCodec@Base 1.1~rc1
 _ZNK2bt6BitSet5allOnEv@Base 1.1~rc1
 _ZNK2bt6PeerID14identifyClientEv@Base 1.1~rc1
 _ZNK2bt6PeerID8toStringEv@Base 1.1~rc1
 _ZNK2bt6Server10metaObjectEv@Base 1.1~rc1
 _ZNK2bt7Torrent12calcChunkPosEjR5QListIjE@Base 1.1~rc1
 _ZNK2bt7Torrent12isMultimediaEv@Base 1.1~rc1
 _ZNK2bt7Torrent17getNumTrackerURLsEv@Base 1.1~rc1
 _ZNK2bt7Torrent7getFileEj@Base 1.1~rc1
 _ZNK2bt7Torrent7getHashEj@Base 1.1~rc1
 _ZNK2bt7Tracker10metaObjectEv@Base 1.1~rc1
 _ZNK2bt7Tracker13bytesUploadedEv@Base 1.1~rc1
 _ZNK2bt7Tracker15bytesDownloadedEv@Base 1.1~rc1
 _ZNK2bt7WaitJob10metaObjectEv@Base 1.1~rc1
 _ZNK2bt7WebSeed10metaObjectEv@Base 1.1~rc1
 _ZNK2bt7WebSeed15getDownloadRateEv@Base 1.1~rc1
 _ZNK2bt7WebSeed4busyEv@Base 1.1~rc1
 _ZNK2bt8JobQueue10metaObjectEv@Base 1.1~rc1
 _ZNK2bt8JobQueue11runningJobsEv@Base 1.1~rc1
 _ZNK2bt8SHA1Hash11toByteArrayEv@Base 1.1~rc1
 _ZNK2bt8SHA1Hash11toURLStringEv@Base 1.1~rc1
 _ZNK2bt8SHA1Hash8toStringEv@Base 1.1~rc1
 _ZNK2bt8SHA1HasheqERKS0_@Base 1.1~rc1
 _ZNK2bt9BDictNode4keysEv@Base 1.1~rc1
 _ZNK2bt9PieceData12generateHashEv@Base 1.1~rc1
 _ZNK2bt9StatsFile6hasKeyERK7QString@Base 1.1~rc1
 _ZNK3dht13DHTPeerSource10metaObjectEv@Base 1.1~rc1
 _ZNK3mse12StreamSocket10connectingEv@Base 1.1~rc1
 _ZNK3mse12StreamSocket13getRemotePortEv@Base 1.1~rc1
 _ZNK3mse12StreamSocket13getUploadRateEv@Base 1.1~rc1
 _ZNK3mse12StreamSocket14bytesAvailableEv@Base 1.1~rc1
 _ZNK3mse12StreamSocket15getDownloadRateEv@Base 1.1~rc1
 _ZNK3mse12StreamSocket15hasBytesToWriteEv@Base 1.1~rc1
 _ZNK3mse12StreamSocket16getRemoteAddressEv@Base 1.1~rc1
 _ZNK3mse12StreamSocket17connectSuccesFullEv@Base 1.1~rc1
 _ZNK3mse12StreamSocket18getRemoteIPAddressEv@Base 1.1~rc1
 _ZNK3mse12StreamSocket2okEv@Base 1.1~rc1
 _ZNK3net12ServerSocket10metaObjectEv@Base 1.1~rc1
 _ZNK3net4Poll5readyEiNS0_4ModeE@Base 1.1~rc1
 _ZNK3net4PorteqERKS0_@Base 1.1~rc1
 _ZNK3net6Socket11getSockNameEv@Base 1.1~rc1
 _ZNK3net6Socket14bytesAvailableEv@Base 1.1~rc1
 _ZNK3net6Socket5readyEPKNS_4PollENS1_4ModeE@Base 1.1~rc1
 _ZNK3utp10Connection10metaObjectEv@Base 1.1~rc1
 _ZNK3utp10Connection11allDataSentEv@Base 1.1~rc1
 _ZNK3utp10Connection11isWriteableEv@Base 1.1~rc1
 _ZNK3utp10Connection14bytesAvailableEv@Base 1.1~rc1
 _ZNK3utp11LocalWindow16selectiveAckBitsEv@Base 1.1~rc1
 _ZNK3utp12PacketParser12selectiveAckEv@Base 1.1~rc1
 _ZNK3utp15UTPServerThread10metaObjectEv@Base 1.1~rc1
 _ZNK3utp9UTPServer10metaObjectEv@Base 1.1~rc1
 _ZNK3utp9UTPSocket11getPeerNameEv@Base 1.1~rc1
 _ZNK3utp9UTPSocket11getSockNameEv@Base 1.1~rc1
 _ZNK3utp9UTPSocket14bytesAvailableEv@Base 1.1~rc1
 _ZNK3utp9UTPSocket2fdEv@Base 1.1~rc1
 _ZNK3utp9UTPSocket2okEv@Base 1.1~rc1
 _ZNK3utp9UTPSocket5readyEPKN3net4PollENS2_4ModeE@Base 1.1~rc1
 (optional=templinst)_ZNSt4listIPN2bt6PacketESaIS2_EED1Ev@Base 1.1.2
 (optional=templinst)_ZNSt4listIPN2bt6PacketESaIS2_EED2Ev@Base 1.1.2
 (optional=templinst)_ZNSt4listIjSaIjEE4sortIN2bt7RareCmpEEEvT_@Base 1.1~rc1
 (optional=templinst)_ZNSt4listIjSaIjEE5mergeIN2bt7RareCmpEEEvRS1_T_@Base 1.1~rc1
 (optional=templinst)_ZNSt4listIjSaIjEED1Ev@Base 1.1.2
 (optional=templinst)_ZNSt4listIjSaIjEED2Ev@Base 1.1.2
 (optional=templinst)_ZNSt4pairI7QStringN2bt13PotentialPeerEED1Ev@Base 1.1.2
 (optional=templinst)_ZNSt4pairI7QStringN2bt13PotentialPeerEED2Ev@Base 1.1.2
 (optional=templinst|arch=sparc)_ZNSt4pairIK7QStringN2bt13PotentialPeerEEC1IS0_S3_EERKS_IT_T0_E@Base 1.1.1
 (optional=templinst)_ZNSt4pairIK7QStringN2bt13PotentialPeerEED1Ev@Base 1.1.2
 (optional=templinst)_ZNSt4pairIK7QStringN2bt13PotentialPeerEED2Ev@Base 1.1.2
 (optional=templinst)_ZNSt4pairIKN3dht3KeyENS0_12KBucketEntryEED1Ev@Base 1.1.2
 (optional=templinst)_ZNSt4pairIKN3dht3KeyENS0_12KBucketEntryEED2Ev@Base 1.1.2
 (optional=templinst)_ZNSt4pairIN3dht3KeyENS0_12KBucketEntryEED1Ev@Base 1.1.2
 (optional=templinst)_ZNSt4pairIN3dht3KeyENS0_12KBucketEntryEED2Ev@Base 1.1.2
 (optional=templinst)_ZNSt6vectorI6pollfdSaIS0_EE13_M_insert_auxEN9__gnu_cxx17__normal_iteratorIPS0_S2_EERKS0_@Base 1.1~rc1
 (optional=templinst)_ZNSt6vectorIjSaIjEE13_M_insert_auxEN9__gnu_cxx17__normal_iteratorIPjS1_EERKj@Base 1.1~rc1
 (optional=templinst)_ZNSt8_Rb_treeI4KUrlSt4pairIKS0_PN2bt7TrackerEESt10_Select1stIS6_ESt4lessIS0_ESaIS6_EE10_M_insert_EPKSt18_Rb_tree_node_baseSF_RKS6_@Base 1.1~rc1
 (optional=templinst)_ZNSt8_Rb_treeI4KUrlSt4pairIKS0_PN2bt7TrackerEESt10_Select1stIS6_ESt4lessIS0_ESaIS6_EE16_M_insert_uniqueERKS6_@Base 1.1~rc1
 (optional=templinst)_ZNSt8_Rb_treeI4KUrlSt4pairIKS0_PN2bt7TrackerEESt10_Select1stIS6_ESt4lessIS0_ESaIS6_EE17_M_insert_unique_ESt23_Rb_tree_const_iteratorIS6_ERKS6_@Base 1.1~rc1
 (optional=templinst)_ZNSt8_Rb_treeI4KUrlSt4pairIKS0_PN2bt7TrackerEESt10_Select1stIS6_ESt4lessIS0_ESaIS6_EE8_M_eraseEPSt13_Rb_tree_nodeIS6_E@Base 1.1~rc1
 (optional=templinst)_ZNSt8_Rb_treeI7QStringSt4pairIKS0_N2bt13PotentialPeerEESt10_Select1stIS5_ESt4lessIS0_ESaIS5_EE10_M_insert_EPKSt18_Rb_tree_node_baseSE_RKS5_@Base 1.1~rc1
 (optional=templinst)_ZNSt8_Rb_treeI7QStringSt4pairIKS0_N2bt13PotentialPeerEESt10_Select1stIS5_ESt4lessIS0_ESaIS5_EE11equal_rangeERS2_@Base 1.1.0
 (optional=templinst|arch=armel)_ZNSt8_Rb_treeI7QStringSt4pairIKS0_N2bt13PotentialPeerEESt10_Select1stIS5_ESt4lessIS0_ESaIS5_EE15_M_insert_equalERKS5_@Base 1.1.1
 (optional=templinst)_ZNSt8_Rb_treeI7QStringSt4pairIKS0_N2bt13PotentialPeerEESt10_Select1stIS5_ESt4lessIS0_ESaIS5_EE8_M_eraseEPSt13_Rb_tree_nodeIS5_E@Base 1.1~rc1
 (optional=templinst)_ZNSt8_Rb_treeI7QStringSt4pairIKS0_PN2bt18DeleteDataFilesJob7DirTreeEESt10_Select1stIS7_ESt4lessIS0_ESaIS7_EE10_M_insert_EPKSt18_Rb_tree_node_baseSG_RKS7_@Base 1.1~rc1
 (optional=templinst)_ZNSt8_Rb_treeI7QStringSt4pairIKS0_PN2bt18DeleteDataFilesJob7DirTreeEESt10_Select1stIS7_ESt4lessIS0_ESaIS7_EE16_M_insert_uniqueERKS7_@Base 1.1~rc1
 (optional=templinst)_ZNSt8_Rb_treeI7QStringSt4pairIKS0_PN2bt18DeleteDataFilesJob7DirTreeEESt10_Select1stIS7_ESt4lessIS0_ESaIS7_EE17_M_insert_unique_ESt23_Rb_tree_const_iteratorIS7_ERKS7_@Base 1.1~rc1
 (optional=templinst)_ZNSt8_Rb_treeI7QStringSt4pairIKS0_PN2bt18DeleteDataFilesJob7DirTreeEESt10_Select1stIS7_ESt4lessIS0_ESaIS7_EE8_M_eraseEPSt13_Rb_tree_nodeIS7_E@Base 1.1~rc1
 (optional=templinst)_ZNSt8_Rb_treeIN3dht12KBucketEntryES1_St9_IdentityIS1_ESt4lessIS1_ESaIS1_EE10_M_insert_EPKSt18_Rb_tree_node_baseSA_RKS1_@Base 1.1~rc1
 (optional=templinst)_ZNSt8_Rb_treeIN3dht12KBucketEntryES1_St9_IdentityIS1_ESt4lessIS1_ESaIS1_EE16_M_insert_uniqueERKS1_@Base 1.1.0
 (optional=templinst)_ZNSt8_Rb_treeIN3dht12KBucketEntryES1_St9_IdentityIS1_ESt4lessIS1_ESaIS1_EE8_M_eraseEPSt13_Rb_tree_nodeIS1_E@Base 1.1~rc1
 (optional=templinst)_ZNSt8_Rb_treeIN3dht20KBucketEntryAndTokenES1_St9_IdentityIS1_ESt4lessIS1_ESaIS1_EE10_M_insert_EPKSt18_Rb_tree_node_baseSA_RKS1_@Base 1.1~rc1
 (optional=templinst)_ZNSt8_Rb_treeIN3dht20KBucketEntryAndTokenES1_St9_IdentityIS1_ESt4lessIS1_ESaIS1_EE16_M_insert_uniqueERKS1_@Base 1.1.0
 (optional=templinst)_ZNSt8_Rb_treeIN3dht20KBucketEntryAndTokenES1_St9_IdentityIS1_ESt4lessIS1_ESaIS1_EE8_M_eraseEPSt13_Rb_tree_nodeIS1_E@Base 1.1~rc1
 (optional=templinst)_ZNSt8_Rb_treeIN3dht3KeyESt4pairIKS1_NS0_12KBucketEntryEESt10_Select1stIS5_ESt4lessIS1_ESaIS5_EE10_M_insert_EPKSt18_Rb_tree_node_baseSE_RKS5_@Base 1.1~rc1
 (optional=templinst)_ZNSt8_Rb_treeIN3dht3KeyESt4pairIKS1_NS0_12KBucketEntryEESt10_Select1stIS5_ESt4lessIS1_ESaIS5_EE11equal_rangeERS3_@Base 1.1.0
 (optional=templinst)_ZNSt8_Rb_treeIN3dht3KeyESt4pairIKS1_NS0_12KBucketEntryEESt10_Select1stIS5_ESt4lessIS1_ESaIS5_EE12_M_erase_auxESt23_Rb_tree_const_iteratorIS5_ESD_@Base 1.1.1
 (optional=templinst)_ZNSt8_Rb_treeIN3dht3KeyESt4pairIKS1_NS0_12KBucketEntryEESt10_Select1stIS5_ESt4lessIS1_ESaIS5_EE16_M_insert_uniqueERKS5_@Base 1.1.0
 (optional=templinst)_ZNSt8_Rb_treeIN3dht3KeyESt4pairIKS1_NS0_12KBucketEntryEESt10_Select1stIS5_ESt4lessIS1_ESaIS5_EE8_M_eraseEPSt13_Rb_tree_nodeIS5_E@Base 1.1~rc1
 (optional=templinst)_ZNSt8_Rb_treeIN3dht3KeyESt4pairIKS1_P5QListINS0_6DBItemEEESt10_Select1stIS8_ESt4lessIS1_ESaIS8_EE10_M_insert_EPKSt18_Rb_tree_node_baseSH_RKS8_@Base 1.1~rc1
 (optional=templinst)_ZNSt8_Rb_treeIN3dht3KeyESt4pairIKS1_P5QListINS0_6DBItemEEESt10_Select1stIS8_ESt4lessIS1_ESaIS8_EE16_M_insert_uniqueERKS8_@Base 1.1~rc1
 (optional=templinst)_ZNSt8_Rb_treeIN3dht3KeyESt4pairIKS1_P5QListINS0_6DBItemEEESt10_Select1stIS8_ESt4lessIS1_ESaIS8_EE17_M_insert_unique_ESt23_Rb_tree_const_iteratorIS8_ERKS8_@Base 1.1~rc1
 (optional=templinst)_ZNSt8_Rb_treeIN3dht3KeyESt4pairIKS1_P5QListINS0_6DBItemEEESt10_Select1stIS8_ESt4lessIS1_ESaIS8_EE8_M_eraseEPSt13_Rb_tree_nodeIS8_E@Base 1.1~rc1
 (optional=templinst)_ZNSt8_Rb_treeIPN2bt15PieceDownloaderESt4pairIKS2_PNS0_14DownloadStatusEESt10_Select1stIS7_ESt4lessIS2_ESaIS7_EE10_M_insert_EPKSt18_Rb_tree_node_baseSG_RKS7_@Base 1.1~rc1
 (optional=templinst)_ZNSt8_Rb_treeIPN2bt15PieceDownloaderESt4pairIKS2_PNS0_14DownloadStatusEESt10_Select1stIS7_ESt4lessIS2_ESaIS7_EE16_M_insert_uniqueERKS7_@Base 1.1~rc1
 (optional=templinst)_ZNSt8_Rb_treeIPN2bt15PieceDownloaderESt4pairIKS2_PNS0_14DownloadStatusEESt10_Select1stIS7_ESt4lessIS2_ESaIS7_EE17_M_insert_unique_ESt23_Rb_tree_const_iteratorIS7_ERKS7_@Base 1.1~rc1
 (optional=templinst)_ZNSt8_Rb_treeIPN2bt15PieceDownloaderESt4pairIKS2_PNS0_14DownloadStatusEESt10_Select1stIS7_ESt4lessIS2_ESaIS7_EE8_M_eraseEPSt13_Rb_tree_nodeIS7_E@Base 1.1~rc1
 (optional=templinst)_ZNSt8_Rb_treeIPN3net4PollESt4pairIKS2_PN3utp12PollPipePairEESt10_Select1stIS8_ESt4lessIS2_ESaIS8_EE10_M_insert_EPKSt18_Rb_tree_node_baseSH_RKS8_@Base 1.1~rc1
 (optional=templinst)_ZNSt8_Rb_treeIPN3net4PollESt4pairIKS2_PN3utp12PollPipePairEESt10_Select1stIS8_ESt4lessIS2_ESaIS8_EE16_M_insert_uniqueERKS8_@Base 1.1~rc1
 (optional=templinst)_ZNSt8_Rb_treeIPN3net4PollESt4pairIKS2_PN3utp12PollPipePairEESt10_Select1stIS8_ESt4lessIS2_ESaIS8_EE17_M_insert_unique_ESt23_Rb_tree_const_iteratorIS8_ERKS8_@Base 1.1~rc1
 (optional=templinst)_ZNSt8_Rb_treeIPN3net4PollESt4pairIKS2_PN3utp12PollPipePairEESt10_Select1stIS8_ESt4lessIS2_ESaIS8_EE8_M_eraseEPSt13_Rb_tree_nodeIS8_E@Base 1.1~rc1
 (optional=templinst)_ZNSt8_Rb_treeIhSt4pairIKhPN3dht7RPCCallEESt10_Select1stIS5_ESt4lessIhESaIS5_EE10_M_insert_EPKSt18_Rb_tree_node_baseSE_RKS5_@Base 1.1~rc1
 (optional=templinst)_ZNSt8_Rb_treeIhSt4pairIKhPN3dht7RPCCallEESt10_Select1stIS5_ESt4lessIhESaIS5_EE16_M_insert_uniqueERKS5_@Base 1.1~rc1
 (optional=templinst)_ZNSt8_Rb_treeIhSt4pairIKhPN3dht7RPCCallEESt10_Select1stIS5_ESt4lessIhESaIS5_EE17_M_insert_unique_ESt23_Rb_tree_const_iteratorIS5_ERKS5_@Base 1.1~rc1
 (optional=templinst)_ZNSt8_Rb_treeIhSt4pairIKhPN3dht7RPCCallEESt10_Select1stIS5_ESt4lessIhESaIS5_EE8_M_eraseEPSt13_Rb_tree_nodeIS5_E@Base 1.1~rc1
 (optional=templinst)_ZNSt8_Rb_treeIiSt4pairIKi14QSharedPointerIN3net10PollClientEEESt10_Select1stIS6_ESt4lessIiESaIS6_EE10_M_insert_EPKSt18_Rb_tree_node_baseSF_RKS6_@Base 1.1~rc1
 (optional=templinst)_ZNSt8_Rb_treeIiSt4pairIKi14QSharedPointerIN3net10PollClientEEESt10_Select1stIS6_ESt4lessIiESaIS6_EE16_M_insert_uniqueERKS6_@Base 1.1~rc1
 (optional=templinst)_ZNSt8_Rb_treeIiSt4pairIKi14QSharedPointerIN3net10PollClientEEESt10_Select1stIS6_ESt4lessIiESaIS6_EE17_M_insert_unique_ESt23_Rb_tree_const_iteratorIS6_ERKS6_@Base 1.1~rc1
 (optional=templinst)_ZNSt8_Rb_treeIiSt4pairIKi14QSharedPointerIN3net10PollClientEEESt10_Select1stIS6_ESt4lessIiESaIS6_EE8_M_eraseEPSt13_Rb_tree_nodeIS6_E@Base 1.1~rc1
 (optional=templinst)_ZNSt8_Rb_treeIjSt4pairIKjN3net7AddressEESt10_Select1stIS4_ESt4lessIjESaIS4_EE10_M_insert_EPKSt18_Rb_tree_node_baseSD_RKS4_@Base 1.1~rc1
 (optional=templinst)_ZNSt8_Rb_treeIjSt4pairIKjN3net7AddressEESt10_Select1stIS4_ESt4lessIjESaIS4_EE16_M_insert_uniqueERKS4_@Base 1.1.0
 (optional=templinst)_ZNSt8_Rb_treeIjSt4pairIKjN3net7AddressEESt10_Select1stIS4_ESt4lessIjESaIS4_EE5eraseERS1_@Base 1.1.0
 (optional=templinst)_ZNSt8_Rb_treeIjSt4pairIKjN3net7AddressEESt10_Select1stIS4_ESt4lessIjESaIS4_EE7_M_copyEPKSt13_Rb_tree_nodeIS4_EPSC_@Base 1.1~rc1
 (optional=templinst)_ZNSt8_Rb_treeIjSt4pairIKjN3net7AddressEESt10_Select1stIS4_ESt4lessIjESaIS4_EE8_M_eraseEPSt13_Rb_tree_nodeIS4_E@Base 1.1~rc1
 (optional=templinst)_ZNSt8_Rb_treeIjSt4pairIKjPN2bt13ChunkDownloadEESt10_Select1stIS5_ESt4lessIjESaIS5_EE10_M_insert_EPKSt18_Rb_tree_node_baseSE_RKS5_@Base 1.1~rc1
 (optional=templinst)_ZNSt8_Rb_treeIjSt4pairIKjPN2bt13ChunkDownloadEESt10_Select1stIS5_ESt4lessIjESaIS5_EE16_M_insert_uniqueERKS5_@Base 1.1~rc1
 (optional=templinst)_ZNSt8_Rb_treeIjSt4pairIKjPN2bt13ChunkDownloadEESt10_Select1stIS5_ESt4lessIjESaIS5_EE17_M_insert_unique_ESt23_Rb_tree_const_iteratorIS5_ERKS5_@Base 1.1~rc1
 (optional=templinst)_ZNSt8_Rb_treeIjSt4pairIKjPN2bt13ChunkDownloadEESt10_Select1stIS5_ESt4lessIjESaIS5_EE8_M_eraseEPSt13_Rb_tree_nodeIS5_E@Base 1.1~rc1
 (optional=templinst)_ZNSt8_Rb_treeIjSt4pairIKjPN2bt21PeerProtocolExtensionEESt10_Select1stIS5_ESt4lessIjESaIS5_EE10_M_insert_EPKSt18_Rb_tree_node_baseSE_RKS5_@Base 1.1~rc1
 (optional=templinst)_ZNSt8_Rb_treeIjSt4pairIKjPN2bt21PeerProtocolExtensionEESt10_Select1stIS5_ESt4lessIjESaIS5_EE16_M_insert_uniqueERKS5_@Base 1.1~rc1
 (optional=templinst)_ZNSt8_Rb_treeIjSt4pairIKjPN2bt21PeerProtocolExtensionEESt10_Select1stIS5_ESt4lessIjESaIS5_EE17_M_insert_unique_ESt23_Rb_tree_const_iteratorIS5_ERKS5_@Base 1.1~rc1
 (optional=templinst)_ZNSt8_Rb_treeIjSt4pairIKjPN2bt21PeerProtocolExtensionEESt10_Select1stIS5_ESt4lessIjESaIS5_EE8_M_eraseEPSt13_Rb_tree_nodeIS5_E@Base 1.1~rc1
 (optional=templinst)_ZNSt8_Rb_treeIjSt4pairIKjPN2bt4PeerEESt10_Select1stIS5_ESt4lessIjESaIS5_EE10_M_insert_EPKSt18_Rb_tree_node_baseSE_RKS5_@Base 1.1~rc1
 (optional=templinst)_ZNSt8_Rb_treeIjSt4pairIKjPN2bt4PeerEESt10_Select1stIS5_ESt4lessIjESaIS5_EE16_M_insert_uniqueERKS5_@Base 1.1~rc1
 (optional=templinst)_ZNSt8_Rb_treeIjSt4pairIKjPN2bt4PeerEESt10_Select1stIS5_ESt4lessIjESaIS5_EE17_M_insert_unique_ESt23_Rb_tree_const_iteratorIS5_ERKS5_@Base 1.1~rc1
 (optional=templinst)_ZNSt8_Rb_treeIjSt4pairIKjPN2bt4PeerEESt10_Select1stIS5_ESt4lessIjESaIS5_EE8_M_eraseEPSt13_Rb_tree_nodeIS5_E@Base 1.1~rc1
 (optional=templinst)_ZNSt8_Rb_treeIjSt4pairIKjPN2bt7DNDFileEESt10_Select1stIS5_ESt4lessIjESaIS5_EE10_M_insert_EPKSt18_Rb_tree_node_baseSE_RKS5_@Base 1.1~rc1
 (optional=templinst)_ZNSt8_Rb_treeIjSt4pairIKjPN2bt7DNDFileEESt10_Select1stIS5_ESt4lessIjESaIS5_EE16_M_insert_uniqueERKS5_@Base 1.1~rc1
 (optional=templinst)_ZNSt8_Rb_treeIjSt4pairIKjPN2bt7DNDFileEESt10_Select1stIS5_ESt4lessIjESaIS5_EE17_M_insert_unique_ESt23_Rb_tree_const_iteratorIS5_ERKS5_@Base 1.1~rc1
 (optional=templinst)_ZNSt8_Rb_treeIjSt4pairIKjPN2bt7DNDFileEESt10_Select1stIS5_ESt4lessIjESaIS5_EE8_M_eraseEPSt13_Rb_tree_nodeIS5_E@Base 1.1~rc1
 (optional=templinst)_ZNSt8_Rb_treeIjSt4pairIKjPN2bt7WebSeedEESt10_Select1stIS5_ESt4lessIjESaIS5_EE10_M_insert_EPKSt18_Rb_tree_node_baseSE_RKS5_@Base 1.1~rc1
 (optional=templinst)_ZNSt8_Rb_treeIjSt4pairIKjPN2bt7WebSeedEESt10_Select1stIS5_ESt4lessIjESaIS5_EE16_M_insert_uniqueERKS5_@Base 1.1~rc1
 (optional=templinst)_ZNSt8_Rb_treeIjSt4pairIKjPN2bt7WebSeedEESt10_Select1stIS5_ESt4lessIjESaIS5_EE17_M_insert_unique_ESt23_Rb_tree_const_iteratorIS5_ERKS5_@Base 1.1~rc1
 (optional=templinst)_ZNSt8_Rb_treeIjSt4pairIKjPN2bt7WebSeedEESt10_Select1stIS5_ESt4lessIjESaIS5_EE8_M_eraseEPSt13_Rb_tree_nodeIS5_E@Base 1.1~rc1
 (optional=templinst)_ZNSt8_Rb_treeIjSt4pairIKjPN2bt9CacheFileEESt10_Select1stIS5_ESt4lessIjESaIS5_EE10_M_insert_EPKSt18_Rb_tree_node_baseSE_RKS5_@Base 1.1~rc1
 (optional=templinst)_ZNSt8_Rb_treeIjSt4pairIKjPN2bt9CacheFileEESt10_Select1stIS5_ESt4lessIjESaIS5_EE16_M_insert_uniqueERKS5_@Base 1.1~rc1
 (optional=templinst)_ZNSt8_Rb_treeIjSt4pairIKjPN2bt9CacheFileEESt10_Select1stIS5_ESt4lessIjESaIS5_EE17_M_insert_unique_ESt23_Rb_tree_const_iteratorIS5_ERKS5_@Base 1.1~rc1
 (optional=templinst)_ZNSt8_Rb_treeIjSt4pairIKjPN2bt9CacheFileEESt10_Select1stIS5_ESt4lessIjESaIS5_EE8_M_eraseEPSt13_Rb_tree_nodeIS5_E@Base 1.1~rc1
 (optional=templinst)_ZNSt8_Rb_treeIjSt4pairIKjPN3dht4TaskEESt10_Select1stIS5_ESt4lessIjESaIS5_EE10_M_insert_EPKSt18_Rb_tree_node_baseSE_RKS5_@Base 1.1~rc1
 (optional=templinst)_ZNSt8_Rb_treeIjSt4pairIKjPN3dht4TaskEESt10_Select1stIS5_ESt4lessIjESaIS5_EE16_M_insert_uniqueERKS5_@Base 1.1~rc1
 (optional=templinst)_ZNSt8_Rb_treeIjSt4pairIKjPN3dht4TaskEESt10_Select1stIS5_ESt4lessIjESaIS5_EE17_M_insert_unique_ESt23_Rb_tree_const_iteratorIS5_ERKS5_@Base 1.1~rc1
 (optional=templinst)_ZNSt8_Rb_treeIjSt4pairIKjPN3dht4TaskEESt10_Select1stIS5_ESt4lessIjESaIS5_EE8_M_eraseEPSt13_Rb_tree_nodeIS5_E@Base 1.1~rc1
 (optional=templinst)_ZNSt8_Rb_treeIjSt4pairIKjPN3net11SocketGroupEESt10_Select1stIS5_ESt4lessIjESaIS5_EE10_M_insert_EPKSt18_Rb_tree_node_baseSE_RKS5_@Base 1.1~rc1
 (optional=templinst)_ZNSt8_Rb_treeIjSt4pairIKjPN3net11SocketGroupEESt10_Select1stIS5_ESt4lessIjESaIS5_EE16_M_insert_uniqueERKS5_@Base 1.1~rc1
 (optional=templinst)_ZNSt8_Rb_treeIjSt4pairIKjPN3net11SocketGroupEESt10_Select1stIS5_ESt4lessIjESaIS5_EE17_M_insert_unique_ESt23_Rb_tree_const_iteratorIS5_ERKS5_@Base 1.1~rc1
 (optional=templinst)_ZNSt8_Rb_treeIjSt4pairIKjPN3net11SocketGroupEESt10_Select1stIS5_ESt4lessIjESaIS5_EE8_M_eraseEPSt13_Rb_tree_nodeIS5_E@Base 1.1~rc1
 (optional=templinst)_ZNSt8_Rb_treeIjSt4pairIKjhESt10_Select1stIS2_ESt4lessIjESaIS2_EE10_M_insert_EPKSt18_Rb_tree_node_baseSB_RKS2_@Base 1.1~rc1
 (optional=templinst)_ZNSt8_Rb_treeIjSt4pairIKjhESt10_Select1stIS2_ESt4lessIjESaIS2_EE16_M_insert_uniqueERKS2_@Base 1.1.0
 (optional=templinst)_ZNSt8_Rb_treeIjSt4pairIKjhESt10_Select1stIS2_ESt4lessIjESaIS2_EE8_M_eraseEPSt13_Rb_tree_nodeIS2_E@Base 1.1~rc1
 (optional=templinst|arch=sparc)_ZSt9make_pairI7QStringN2bt13PotentialPeerEESt4pairIT_T0_ES4_S5_@Base 1.1.1
 _ZTIN2bt10BValueNodeE@Base 1.1~rc1
 _ZTIN2bt10DownloaderE@Base 1.1~rc1
 _ZTIN2bt10MagnetLinkE@Base 1.1~rc1
 _ZTIN2bt10PeerSourceE@Base 1.1~rc1
 _ZTIN2bt10UPnPRouterE@Base 1.1~rc1
 _ZTIN2bt10UTMetaDataE@Base 1.1~rc1
 _ZTIN2bt11DataCheckerE@Base 1.1~rc1
 _ZTIN2bt11HTTPTrackerE@Base 1.1~rc1
 _ZTIN2bt11PeerManager11PeerVisitorE@Base 1.1~rc1
 _ZTIN2bt11PeerManagerE@Base 1.1~rc1
 _ZTIN2bt11SuperSeederE@Base 1.1~rc1
 _ZTIN2bt11TorrentFileE@Base 1.1~rc1
 _ZTIN2bt12CacheFactoryE@Base 1.1~rc1
 _ZTIN2bt12ChunkCounterE@Base 1.1~rc1
 _ZTIN2bt12ChunkManagerE@Base 1.1~rc1
 _ZTIN2bt12PieceHandlerE@Base 1.1~rc1
 _ZTIN2bt12TrackersListE@Base 1.1~rc1
 _ZTIN2bt13AccessManagerE@Base 1.1~rc1
 _ZTIN2bt13ChunkDownloadE@Base 1.1~rc1
 _ZTIN2bt13ExitOperationE@Base 1.1~rc1
 _ZTIN2bt13PeerConnectorE@Base 1.1~rc1
 _ZTIN2bt13PeerInterfaceE@Base 1.1~rc1
 _ZTIN2bt14BEncoderOutputE@Base 1.1~rc1
 _ZTIN2bt14CircularBufferE@Base 1.1~rc1
 _ZTIN2bt14CompressThreadE@Base 1.1~rc1
 _ZTIN2bt14DataCheckerJobE@Base 1.1~rc1
 _ZTIN2bt14ExtractFileJobE@Base 1.1~rc1
 _ZTIN2bt14KIOAnnounceJobE@Base 1.1~rc1
 _ZTIN2bt14TorrentControlE@Base 1.1~rc1
 _ZTIN2bt14TorrentCreatorE@Base 1.1~rc1
 _ZTIN2bt14TrackerManagerE@Base 1.1~rc1
 _ZTIN2bt15CompressFileJobE@Base 1.1~rc1
 _ZTIN2bt15HTTPAnnounceJobE@Base 1.1~rc1
 _ZTIN2bt15PieceDownloaderE@Base 1.1~rc1
 _ZTIN2bt15ResourceManagerE@Base 1.1~rc1
 _ZTIN2bt15ServerInterfaceE@Base 1.1~rc1
 _ZTIN2bt15UPnPMCastSocketE@Base 1.1~rc1
 _ZTIN2bt16DecompressThreadE@Base 1.1~rc1
 _ZTIN2bt16LogSystemManagerE@Base 1.1~rc1
 _ZTIN2bt16MagnetDownloaderE@Base 1.1~rc1
 _ZTIN2bt16MonitorInterfaceE@Base 1.1~rc1
 _ZTIN2bt16MultiDataCheckerE@Base 1.1~rc1
 _ZTIN2bt16PreallocationJobE@Base 1.1~rc1
 _ZTIN2bt16TorrentInterfaceE@Base 1.1~rc1
 _ZTIN2bt16TrackerInterfaceE@Base 1.1~rc1
 _ZTIN2bt16UDPTrackerSocket7PrivateE@Base 1.1~rc1
 _ZTIN2bt16UDPTrackerSocketE@Base 1.1~rc1
 _ZTIN2bt16WebSeedInterfaceE@Base 1.1~rc1
 _ZTIN2bt17DataCheckerThreadE@Base 1.1~rc1
 _ZTIN2bt17DecompressFileJobE@Base 1.1~rc1
 _ZTIN2bt17SingleDataCheckerE@Base 1.1~rc1
 _ZTIN2bt17TorrentFileStreamE@Base 1.1~rc1
 _ZTIN2bt17TrackerDataSourceE@Base 1.1~rc1
 _ZTIN2bt18BEncoderFileOutputE@Base 1.1~rc1
 _ZTIN2bt18BlockListInterfaceE@Base 1.1~rc1
 _ZTIN2bt19LogMonitorInterfaceE@Base 1.1~rc1
 _ZTIN2bt20BEncoderBufferOutputE@Base 1.1~rc1
 _ZTIN2bt20FilePriorityListenerE@Base 1.1~rc1
 _ZTIN2bt20TorrentFileInterfaceE@Base 1.1~rc1
 _ZTIN2bt21AuthenticationMonitorE@Base 1.1~rc1
 _ZTIN2bt21PeerProtocolExtensionE@Base 1.1~rc1
 _ZTIN2bt21QueueManagerInterfaceE@Base 1.1~rc1
 _ZTIN2bt22BEncoderIODeviceOutputE@Base 1.1~rc1
 _ZTIN2bt22ChunkSelectorInterfaceE@Base 1.1~rc1
 _ZTIN2bt22StreamingChunkSelectorE@Base 1.1~rc1
 _ZTIN2bt3JobE@Base 1.1~rc1
 _ZTIN2bt3LogE@Base 1.1~rc1
 _ZTIN2bt4FileE@Base 1.1~rc1
 _ZTIN2bt4PeerE@Base 1.1~rc1
 _ZTIN2bt4PipeE@Base 1.1~rc1
 _ZTIN2bt5BNodeE@Base 1.1~rc1
 _ZTIN2bt5CacheE@Base 1.1~rc1
 _ZTIN2bt5ErrorE@Base 1.1~rc1
 _ZTIN2bt5TimerE@Base 1.1~rc1
 _ZTIN2bt5UTPexE@Base 1.1~rc1
 _ZTIN2bt6BitSetE@Base 1.1~rc1
 _ZTIN2bt6ChokerE@Base 1.1~rc1
 _ZTIN2bt6PeerIDE@Base 1.1~rc1
 _ZTIN2bt6Server7PrivateE@Base 1.1~rc1
 _ZTIN2bt6ServerE@Base 1.1~rc1
 _ZTIN2bt7GlobalsE@Base 1.1~rc1
 _ZTIN2bt7TorrentE@Base 1.1~rc1
 _ZTIN2bt7TrackerE@Base 1.1~rc1
 _ZTIN2bt7WaitJobE@Base 1.1~rc1
 _ZTIN2bt7WarningE@Base 1.1~rc1
 _ZTIN2bt7WebSeed12AutoDisabledE@Base 1.1~rc1
 _ZTIN2bt7WebSeedE@Base 1.1~rc1
 _ZTIN2bt8BDecoderE@Base 1.1~rc1
 _ZTIN2bt8BEncoderE@Base 1.1~rc1
 _ZTIN2bt8BusErrorE@Base 1.1~rc1
 _ZTIN2bt8JobQueueE@Base 1.1~rc1
 _ZTIN2bt8ResourceE@Base 1.1~rc1
 _ZTIN2bt8SHA1HashE@Base 1.1~rc1
 _ZTIN2bt9BDictNodeE@Base 1.1~rc1
 _ZTIN2bt9BListNodeE@Base 1.1~rc1
 _ZTIN2bt9PieceDataE@Base 1.1~rc1
 _ZTIN2bt9StatsFileE@Base 1.1~rc1
 _ZTIN3dht13DHTPeerSourceE@Base 1.1~rc1
 _ZTIN3mse12RC4EncryptorE@Base 1.1~rc1
 _ZTIN3mse12StreamSocketE@Base 1.1~rc1
 _ZTIN3net10PollClientE@Base 1.1~rc1
 _ZTIN3net10WakeUpPipeE@Base 1.1~rc1
 _ZTIN3net12ServerSocket11DataHandlerE@Base 1.1~rc1
 _ZTIN3net12ServerSocket17ConnectionHandlerE@Base 1.1~rc1
 _ZTIN3net12ServerSocketE@Base 1.1~rc1
 _ZTIN3net13SocketMonitorE@Base 1.1~rc1
 _ZTIN3net4PollE@Base 1.1~rc1
 _ZTIN3net5SocksE@Base 1.1~rc1
 _ZTIN3net6SocketE@Base 1.1~rc1
 _ZTIN3net7AddressE@Base 1.1~rc1
 _ZTIN3net8PortListE@Base 1.1~rc1
 _ZTIN3utp10Connection17TransmissionErrorE@Base 1.1~rc1
 _ZTIN3utp10ConnectionE@Base 1.1~rc1
 _ZTIN3utp11DelayWindowE@Base 1.1~rc1
 _ZTIN3utp11LocalWindowE@Base 1.1~rc1
 _ZTIN3utp11TransmitterE@Base 1.1~rc1
 _ZTIN3utp12RemoteWindowE@Base 1.1~rc1
 _ZTIN3utp13RetransmitterE@Base 1.1~rc1
 _ZTIN3utp15UTPServerThreadE@Base 1.1~rc1
 _ZTIN3utp9UTPServer7PrivateE@Base 1.1~rc1
 _ZTIN3utp9UTPServerE@Base 1.1~rc1
 _ZTIN3utp9UTPSocketE@Base 1.1~rc1
 _ZTISt3setIN3dht12KBucketEntryESt4lessIS1_ESaIS1_EE@Base 1.1~rc1
 _ZTSN2bt10BValueNodeE@Base 1.1~rc1
 _ZTSN2bt10DownloaderE@Base 1.1~rc1
 _ZTSN2bt10MagnetLinkE@Base 1.1~rc1
 _ZTSN2bt10PeerSourceE@Base 1.1~rc1
 _ZTSN2bt10UPnPRouterE@Base 1.1~rc1
 _ZTSN2bt10UTMetaDataE@Base 1.1~rc1
 _ZTSN2bt11DataCheckerE@Base 1.1~rc1
 _ZTSN2bt11HTTPTrackerE@Base 1.1~rc1
 _ZTSN2bt11PeerManager11PeerVisitorE@Base 1.1~rc1
 _ZTSN2bt11PeerManagerE@Base 1.1~rc1
 _ZTSN2bt11SuperSeederE@Base 1.1~rc1
 _ZTSN2bt11TorrentFileE@Base 1.1~rc1
 _ZTSN2bt12CacheFactoryE@Base 1.1~rc1
 _ZTSN2bt12ChunkCounterE@Base 1.1~rc1
 _ZTSN2bt12ChunkManagerE@Base 1.1~rc1
 _ZTSN2bt12PieceHandlerE@Base 1.1~rc1
 _ZTSN2bt12TrackersListE@Base 1.1~rc1
 _ZTSN2bt13AccessManagerE@Base 1.1~rc1
 _ZTSN2bt13ChunkDownloadE@Base 1.1~rc1
 _ZTSN2bt13ExitOperationE@Base 1.1~rc1
 _ZTSN2bt13PeerConnectorE@Base 1.1~rc1
 _ZTSN2bt13PeerInterfaceE@Base 1.1~rc1
 _ZTSN2bt14BEncoderOutputE@Base 1.1~rc1
 _ZTSN2bt14CircularBufferE@Base 1.1~rc1
 _ZTSN2bt14CompressThreadE@Base 1.1~rc1
 _ZTSN2bt14DataCheckerJobE@Base 1.1~rc1
 _ZTSN2bt14ExtractFileJobE@Base 1.1~rc1
 _ZTSN2bt14KIOAnnounceJobE@Base 1.1~rc1
 _ZTSN2bt14TorrentControlE@Base 1.1~rc1
 _ZTSN2bt14TorrentCreatorE@Base 1.1~rc1
 _ZTSN2bt14TrackerManagerE@Base 1.1~rc1
 _ZTSN2bt15CompressFileJobE@Base 1.1~rc1
 _ZTSN2bt15HTTPAnnounceJobE@Base 1.1~rc1
 _ZTSN2bt15PieceDownloaderE@Base 1.1~rc1
 _ZTSN2bt15ResourceManagerE@Base 1.1~rc1
 _ZTSN2bt15ServerInterfaceE@Base 1.1~rc1
 _ZTSN2bt15UPnPMCastSocketE@Base 1.1~rc1
 _ZTSN2bt16DecompressThreadE@Base 1.1~rc1
 _ZTSN2bt16LogSystemManagerE@Base 1.1~rc1
 _ZTSN2bt16MagnetDownloaderE@Base 1.1~rc1
 _ZTSN2bt16MonitorInterfaceE@Base 1.1~rc1
 _ZTSN2bt16MultiDataCheckerE@Base 1.1~rc1
 _ZTSN2bt16PreallocationJobE@Base 1.1~rc1
 _ZTSN2bt16TorrentInterfaceE@Base 1.1~rc1
 _ZTSN2bt16TrackerInterfaceE@Base 1.1~rc1
 _ZTSN2bt16UDPTrackerSocket7PrivateE@Base 1.1~rc1
 _ZTSN2bt16UDPTrackerSocketE@Base 1.1~rc1
 _ZTSN2bt16WebSeedInterfaceE@Base 1.1~rc1
 _ZTSN2bt17DataCheckerThreadE@Base 1.1~rc1
 _ZTSN2bt17DecompressFileJobE@Base 1.1~rc1
 _ZTSN2bt17SingleDataCheckerE@Base 1.1~rc1
 _ZTSN2bt17TorrentFileStreamE@Base 1.1~rc1
 _ZTSN2bt17TrackerDataSourceE@Base 1.1~rc1
 _ZTSN2bt18BEncoderFileOutputE@Base 1.1~rc1
 _ZTSN2bt18BlockListInterfaceE@Base 1.1~rc1
 _ZTSN2bt19LogMonitorInterfaceE@Base 1.1~rc1
 _ZTSN2bt20BEncoderBufferOutputE@Base 1.1~rc1
 _ZTSN2bt20FilePriorityListenerE@Base 1.1~rc1
 _ZTSN2bt20TorrentFileInterfaceE@Base 1.1~rc1
 _ZTSN2bt21AuthenticationMonitorE@Base 1.1~rc1
 _ZTSN2bt21PeerProtocolExtensionE@Base 1.1~rc1
 _ZTSN2bt21QueueManagerInterfaceE@Base 1.1~rc1
 _ZTSN2bt22BEncoderIODeviceOutputE@Base 1.1~rc1
 _ZTSN2bt22ChunkSelectorInterfaceE@Base 1.1~rc1
 _ZTSN2bt22StreamingChunkSelectorE@Base 1.1~rc1
 _ZTSN2bt3JobE@Base 1.1~rc1
 _ZTSN2bt3LogE@Base 1.1~rc1
 _ZTSN2bt4FileE@Base 1.1~rc1
 _ZTSN2bt4PeerE@Base 1.1~rc1
 _ZTSN2bt4PipeE@Base 1.1~rc1
 _ZTSN2bt5BNodeE@Base 1.1~rc1
 _ZTSN2bt5CacheE@Base 1.1~rc1
 _ZTSN2bt5ErrorE@Base 1.1~rc1
 _ZTSN2bt5TimerE@Base 1.1~rc1
 _ZTSN2bt5UTPexE@Base 1.1~rc1
 _ZTSN2bt6BitSetE@Base 1.1~rc1
 _ZTSN2bt6ChokerE@Base 1.1~rc1
 _ZTSN2bt6PeerIDE@Base 1.1~rc1
 _ZTSN2bt6Server7PrivateE@Base 1.1~rc1
 _ZTSN2bt6ServerE@Base 1.1~rc1
 _ZTSN2bt7GlobalsE@Base 1.1~rc1
 _ZTSN2bt7TorrentE@Base 1.1~rc1
 _ZTSN2bt7TrackerE@Base 1.1~rc1
 _ZTSN2bt7WaitJobE@Base 1.1~rc1
 _ZTSN2bt7WarningE@Base 1.1~rc1
 _ZTSN2bt7WebSeed12AutoDisabledE@Base 1.1~rc1
 _ZTSN2bt7WebSeedE@Base 1.1~rc1
 _ZTSN2bt8BDecoderE@Base 1.1~rc1
 _ZTSN2bt8BEncoderE@Base 1.1~rc1
 _ZTSN2bt8BusErrorE@Base 1.1~rc1
 _ZTSN2bt8JobQueueE@Base 1.1~rc1
 _ZTSN2bt8ResourceE@Base 1.1~rc1
 _ZTSN2bt8SHA1HashE@Base 1.1~rc1
 _ZTSN2bt9BDictNodeE@Base 1.1~rc1
 _ZTSN2bt9BListNodeE@Base 1.1~rc1
 _ZTSN2bt9PieceDataE@Base 1.1~rc1
 _ZTSN2bt9StatsFileE@Base 1.1~rc1
 _ZTSN3dht13DHTPeerSourceE@Base 1.1~rc1
 _ZTSN3mse12RC4EncryptorE@Base 1.1~rc1
 _ZTSN3mse12StreamSocketE@Base 1.1~rc1
 _ZTSN3net10PollClientE@Base 1.1~rc1
 _ZTSN3net10WakeUpPipeE@Base 1.1~rc1
 _ZTSN3net12ServerSocket11DataHandlerE@Base 1.1~rc1
 _ZTSN3net12ServerSocket17ConnectionHandlerE@Base 1.1~rc1
 _ZTSN3net12ServerSocketE@Base 1.1~rc1
 _ZTSN3net13SocketMonitorE@Base 1.1~rc1
 _ZTSN3net4PollE@Base 1.1~rc1
 _ZTSN3net5SocksE@Base 1.1~rc1
 _ZTSN3net6SocketE@Base 1.1~rc1
 _ZTSN3net7AddressE@Base 1.1~rc1
 _ZTSN3net8PortListE@Base 1.1~rc1
 _ZTSN3utp10Connection17TransmissionErrorE@Base 1.1~rc1
 _ZTSN3utp10ConnectionE@Base 1.1~rc1
 _ZTSN3utp11DelayWindowE@Base 1.1~rc1
 _ZTSN3utp11LocalWindowE@Base 1.1~rc1
 _ZTSN3utp11TransmitterE@Base 1.1~rc1
 _ZTSN3utp12RemoteWindowE@Base 1.1~rc1
 _ZTSN3utp13RetransmitterE@Base 1.1~rc1
 _ZTSN3utp15UTPServerThreadE@Base 1.1~rc1
 _ZTSN3utp9UTPServer7PrivateE@Base 1.1~rc1
 _ZTSN3utp9UTPServerE@Base 1.1~rc1
 _ZTSN3utp9UTPSocketE@Base 1.1~rc1
 _ZTSSt3setIN3dht12KBucketEntryESt4lessIS1_ESaIS1_EE@Base 1.1~rc1
 _ZTVN2bt10BValueNodeE@Base 1.1~rc1
 _ZTVN2bt10DownloaderE@Base 1.1~rc1
 _ZTVN2bt10MagnetLinkE@Base 1.1~rc1
 _ZTVN2bt10PeerSourceE@Base 1.1~rc1
 _ZTVN2bt10UPnPRouterE@Base 1.1~rc1
 _ZTVN2bt10UTMetaDataE@Base 1.1~rc1
 _ZTVN2bt11DataCheckerE@Base 1.1~rc1
 _ZTVN2bt11HTTPTrackerE@Base 1.1~rc1
 _ZTVN2bt11PeerManager11PeerVisitorE@Base 1.1~rc1
 _ZTVN2bt11PeerManagerE@Base 1.1~rc1
 _ZTVN2bt11SuperSeederE@Base 1.1~rc1
 _ZTVN2bt11TorrentFileE@Base 1.1~rc1
 _ZTVN2bt12CacheFactoryE@Base 1.1~rc1
 _ZTVN2bt12ChunkCounterE@Base 1.1~rc1
 _ZTVN2bt12ChunkManagerE@Base 1.1~rc1
 _ZTVN2bt12PieceHandlerE@Base 1.1~rc1
 _ZTVN2bt12TrackersListE@Base 1.1~rc1
 _ZTVN2bt13AccessManagerE@Base 1.1~rc1
 _ZTVN2bt13ChunkDownloadE@Base 1.1~rc1
 _ZTVN2bt13ExitOperationE@Base 1.1~rc1
 _ZTVN2bt13PeerConnectorE@Base 1.1~rc1
 _ZTVN2bt13PeerInterfaceE@Base 1.1~rc1
 _ZTVN2bt14BEncoderOutputE@Base 1.1~rc1
 _ZTVN2bt14CircularBufferE@Base 1.1~rc1
 _ZTVN2bt14CompressThreadE@Base 1.1~rc1
 _ZTVN2bt14DataCheckerJobE@Base 1.1~rc1
 _ZTVN2bt14ExtractFileJobE@Base 1.1~rc1
 _ZTVN2bt14KIOAnnounceJobE@Base 1.1~rc1
 _ZTVN2bt14TorrentControlE@Base 1.1~rc1
 _ZTVN2bt14TorrentCreatorE@Base 1.1~rc1
 _ZTVN2bt14TrackerManagerE@Base 1.1~rc1
 _ZTVN2bt15CompressFileJobE@Base 1.1~rc1
 _ZTVN2bt15HTTPAnnounceJobE@Base 1.1~rc1
 _ZTVN2bt15PieceDownloaderE@Base 1.1~rc1
 _ZTVN2bt15ResourceManagerE@Base 1.1~rc1
 _ZTVN2bt15ServerInterfaceE@Base 1.1~rc1
 _ZTVN2bt15UPnPMCastSocketE@Base 1.1~rc1
 _ZTVN2bt16DecompressThreadE@Base 1.1~rc1
 _ZTVN2bt16LogSystemManagerE@Base 1.1~rc1
 _ZTVN2bt16MagnetDownloaderE@Base 1.1~rc1
 _ZTVN2bt16MonitorInterfaceE@Base 1.1~rc1
 _ZTVN2bt16MultiDataCheckerE@Base 1.1~rc1
 _ZTVN2bt16PreallocationJobE@Base 1.1~rc1
 _ZTVN2bt16TorrentInterfaceE@Base 1.1~rc1
 _ZTVN2bt16TrackerInterfaceE@Base 1.1~rc1
 _ZTVN2bt16UDPTrackerSocket7PrivateE@Base 1.1~rc1
 _ZTVN2bt16UDPTrackerSocketE@Base 1.1~rc1
 _ZTVN2bt16WebSeedInterfaceE@Base 1.1~rc1
 _ZTVN2bt17DataCheckerThreadE@Base 1.1~rc1
 _ZTVN2bt17DecompressFileJobE@Base 1.1~rc1
 _ZTVN2bt17SingleDataCheckerE@Base 1.1~rc1
 _ZTVN2bt17TorrentFileStreamE@Base 1.1~rc1
 _ZTVN2bt17TrackerDataSourceE@Base 1.1~rc1
 _ZTVN2bt18BEncoderFileOutputE@Base 1.1~rc1
 _ZTVN2bt18BlockListInterfaceE@Base 1.1~rc1
 _ZTVN2bt19LogMonitorInterfaceE@Base 1.1~rc1
 _ZTVN2bt20BEncoderBufferOutputE@Base 1.1~rc1
 _ZTVN2bt20FilePriorityListenerE@Base 1.1~rc1
 _ZTVN2bt20TorrentFileInterfaceE@Base 1.1~rc1
 _ZTVN2bt21AuthenticationMonitorE@Base 1.1~rc1
 _ZTVN2bt21PeerProtocolExtensionE@Base 1.1~rc1
 _ZTVN2bt21QueueManagerInterfaceE@Base 1.1~rc1
 _ZTVN2bt22BEncoderIODeviceOutputE@Base 1.1~rc1
 _ZTVN2bt22ChunkSelectorInterfaceE@Base 1.1~rc1
 _ZTVN2bt22StreamingChunkSelectorE@Base 1.1~rc1
 _ZTVN2bt3JobE@Base 1.1~rc1
 _ZTVN2bt3LogE@Base 1.1~rc1
 _ZTVN2bt4FileE@Base 1.1~rc1
 _ZTVN2bt4PeerE@Base 1.1~rc1
 _ZTVN2bt4PipeE@Base 1.1~rc1
 _ZTVN2bt5BNodeE@Base 1.1~rc1
 _ZTVN2bt5CacheE@Base 1.1~rc1
 _ZTVN2bt5ErrorE@Base 1.1~rc1
 _ZTVN2bt5TimerE@Base 1.1~rc1
 _ZTVN2bt5UTPexE@Base 1.1~rc1
 _ZTVN2bt6BitSetE@Base 1.1~rc1
 _ZTVN2bt6ChokerE@Base 1.1~rc1
 _ZTVN2bt6PeerIDE@Base 1.1~rc1
 _ZTVN2bt6Server7PrivateE@Base 1.1~rc1
 _ZTVN2bt6ServerE@Base 1.1~rc1
 _ZTVN2bt7GlobalsE@Base 1.1~rc1
 _ZTVN2bt7TorrentE@Base 1.1~rc1
 _ZTVN2bt7TrackerE@Base 1.1~rc1
 _ZTVN2bt7WaitJobE@Base 1.1~rc1
 _ZTVN2bt7WarningE@Base 1.1~rc1
 _ZTVN2bt7WebSeedE@Base 1.1~rc1
 _ZTVN2bt8BDecoderE@Base 1.1~rc1
 _ZTVN2bt8BEncoderE@Base 1.1~rc1
 _ZTVN2bt8BusErrorE@Base 1.1~rc1
 _ZTVN2bt8JobQueueE@Base 1.1~rc1
 _ZTVN2bt8ResourceE@Base 1.1~rc1
 _ZTVN2bt8SHA1HashE@Base 1.1~rc1
 _ZTVN2bt9BDictNodeE@Base 1.1~rc1
 _ZTVN2bt9BListNodeE@Base 1.1~rc1
 _ZTVN2bt9PieceDataE@Base 1.1~rc1
 _ZTVN2bt9StatsFileE@Base 1.1~rc1
 _ZTVN3dht13DHTPeerSourceE@Base 1.1~rc1
 _ZTVN3mse12RC4EncryptorE@Base 1.1~rc1
 _ZTVN3mse12StreamSocketE@Base 1.1~rc1
 _ZTVN3net10PollClientE@Base 1.1~rc1
 _ZTVN3net10WakeUpPipeE@Base 1.1~rc1
 _ZTVN3net12ServerSocket11DataHandlerE@Base 1.1~rc1
 _ZTVN3net12ServerSocket17ConnectionHandlerE@Base 1.1~rc1
 _ZTVN3net12ServerSocketE@Base 1.1~rc1
 _ZTVN3net13SocketMonitorE@Base 1.1~rc1
 _ZTVN3net4PollE@Base 1.1~rc1
 _ZTVN3net5SocksE@Base 1.1~rc1
 _ZTVN3net6SocketE@Base 1.1~rc1
 _ZTVN3net7AddressE@Base 1.1~rc1
 _ZTVN3net8PortListE@Base 1.1~rc1
 _ZTVN3utp10ConnectionE@Base 1.1~rc1
 _ZTVN3utp11DelayWindowE@Base 1.1~rc1
 _ZTVN3utp11LocalWindowE@Base 1.1~rc1
 _ZTVN3utp11TransmitterE@Base 1.1~rc1
 _ZTVN3utp12RemoteWindowE@Base 1.1~rc1
 _ZTVN3utp13RetransmitterE@Base 1.1~rc1
 _ZTVN3utp15UTPServerThreadE@Base 1.1~rc1
 _ZTVN3utp9UTPServer7PrivateE@Base 1.1~rc1
 _ZTVN3utp9UTPServerE@Base 1.1~rc1
 _ZTVN3utp9UTPSocketE@Base 1.1~rc1
 (c++)"non-virtual thunk to bt::ChunkDownload::getStats(bt::ChunkDownloadInterface::Stats&)@Base" 1.1~rc1
 (c++)"non-virtual thunk to bt::ChunkDownload::~ChunkDownload()@Base" 1.1~rc1
 (c++)"non-virtual thunk to bt::DataCheckerJob::acquired()@Base" 1.1~rc1
 (c++)"non-virtual thunk to bt::DataCheckerJob::~DataCheckerJob()@Base" 1.1~rc1
 (c++)"non-virtual thunk to bt::Downloader::pieceReceived(bt::Piece const&)@Base" 1.1~rc1
 (c++)"non-virtual thunk to bt::Downloader::~Downloader()@Base" 1.1~rc1
 (c++)"non-virtual thunk to bt::HTTPTracker::~HTTPTracker()@Base" 1.1~rc1
 (c++)"non-virtual thunk to bt::MagnetDownloader::bytesDownloaded() const@Base" 1.1~rc1
 (c++)"non-virtual thunk to bt::MagnetDownloader::bytesLeft() const@Base" 1.1~rc1
 (c++)"non-virtual thunk to bt::MagnetDownloader::bytesUploaded() const@Base" 1.1~rc1
 (c++)"non-virtual thunk to bt::MagnetDownloader::infoHash() const@Base" 1.1~rc1
 (c++)"non-virtual thunk to bt::MagnetDownloader::~MagnetDownloader()@Base" 1.1~rc1
 (c++)"non-virtual thunk to bt::Peer::averageDownloadSpeed() const@Base" 1.1~rc1
 (c++)"non-virtual thunk to bt::Peer::getStats() const@Base" 1.1~rc1
 (c++)"non-virtual thunk to bt::Peer::kill()@Base" 1.1~rc1
 (c++)"non-virtual thunk to bt::Peer::~Peer()@Base" 1.1~rc1
 (c++)"non-virtual thunk to bt::PeerManager::allowChunk(bt::PeerInterface*, unsigned int)@Base" 1.1~rc1
 (c++)"non-virtual thunk to bt::PeerManager::~PeerManager()@Base" 1.1~rc1
 (c++)"non-virtual thunk to bt::TorrentControl::downloadPriorityChanged(bt::TorrentFile*, bt::Priority, bt::Priority)@Base" 1.1~rc1
 (c++)"non-virtual thunk to bt::TorrentControl::~TorrentControl()@Base" 1.1~rc1
 (c++)"non-virtual thunk to bt::Tracker::~Tracker()@Base" 1.1~rc1
 (c++)"non-virtual thunk to bt::TrackerManager::addTracker(KUrl const&, bool, int)@Base" 1.1~rc1
 (c++)"non-virtual thunk to bt::TrackerManager::bytesDownloaded() const@Base" 1.1~rc1
 (c++)"non-virtual thunk to bt::TrackerManager::bytesLeft() const@Base" 1.1~rc1
 (c++)"non-virtual thunk to bt::TrackerManager::bytesUploaded() const@Base" 1.1~rc1
 (c++)"non-virtual thunk to bt::TrackerManager::canRemoveTracker(bt::TrackerInterface*)@Base" 1.1~rc1
 (c++)"non-virtual thunk to bt::TrackerManager::getCurrentTracker() const@Base" 1.1~rc1
 (c++)"non-virtual thunk to bt::TrackerManager::getTrackers()@Base" 1.1~rc1
 (c++)"non-virtual thunk to bt::TrackerManager::infoHash() const@Base" 1.1~rc1
 (c++)"non-virtual thunk to bt::TrackerManager::noTrackersReachable() const@Base" 1.1~rc1
 (c++)"non-virtual thunk to bt::TrackerManager::removeTracker(KUrl const&)@Base" 1.1~rc1
 (c++)"non-virtual thunk to bt::TrackerManager::removeTracker(bt::TrackerInterface*)@Base" 1.1~rc1
 (c++)"non-virtual thunk to bt::TrackerManager::restoreDefault()@Base" 1.1~rc1
 (c++)"non-virtual thunk to bt::TrackerManager::setCurrentTracker(KUrl const&)@Base" 1.1~rc1
 (c++)"non-virtual thunk to bt::TrackerManager::setCurrentTracker(bt::TrackerInterface*)@Base" 1.1~rc1
 (c++)"non-virtual thunk to bt::TrackerManager::setTrackerEnabled(KUrl const&, bool)@Base" 1.1~rc1
 (c++)"non-virtual thunk to bt::TrackerManager::~TrackerManager()@Base" 1.1~rc1
 (c++)"non-virtual thunk to bt::UTPex::visit(bt::Peer const*)@Base" 1.1~rc1
 (c++)"non-virtual thunk to bt::UTPex::~UTPex()@Base" 1.1~rc1
 (c++)"non-virtual thunk to bt::WebSeed::getDownloadRate() const@Base" 1.1~rc1
 (c++)"non-virtual thunk to bt::WebSeed::setEnabled(bool)@Base" 1.1~rc1
 (c++)"non-virtual thunk to bt::WebSeed::~WebSeed()@Base" 1.1~rc1
 (c++)"non-virtual thunk to mse::StreamSocket::hasBytesToWrite() const@Base" 1.1~rc1
 (c++)"non-virtual thunk to mse::StreamSocket::onReadyToWrite(unsigned char*, unsigned int)@Base" 1.1~rc1
 (c++)"non-virtual thunk to mse::StreamSocket::~StreamSocket()@Base" 1.1~rc1
 (c++)"non-virtual thunk to net::WakeUpPipe::handleData()@Base" 1.1~rc1
 (c++)"non-virtual thunk to net::WakeUpPipe::reset()@Base" 1.1~rc1
 (c++)"non-virtual thunk to net::WakeUpPipe::~WakeUpPipe()@Base" 1.1~rc1
 (c++)"non-virtual thunk to utp::Connection::retransmit(QByteArray const&, unsigned short)@Base" 1.1~rc1
 (c++)"non-virtual thunk to utp::Connection::updateRTT(utp::Header const*, unsigned int, unsigned int)@Base" 1.1~rc1
 (c++)"non-virtual thunk to utp::Connection::~Connection()@Base" 1.1~rc1
 (c++)"non-virtual thunk to utp::UTPServer::cancelTimer(int)@Base" 1.1~rc1
 (c++)"non-virtual thunk to utp::UTPServer::closed(QSharedPointer<utp::Connection>)@Base" 1.1~rc1
 (c++)"non-virtual thunk to utp::UTPServer::scheduleTimer(QSharedPointer<utp::Connection>, unsigned int)@Base" 1.1~rc1
 (c++)"non-virtual thunk to utp::UTPServer::sendTo(QSharedPointer<utp::Connection>, QByteArray const&)@Base" 1.1~rc1
 (c++)"non-virtual thunk to utp::UTPServer::stateChanged(QSharedPointer<utp::Connection>, bool, bool)@Base" 1.1~rc1
 (c++)"non-virtual thunk to utp::UTPServer::~UTPServer()@Base" 1.1~rc1
